	.file	"chatwidget.cpp"
	.text
	.section	.text._ZSt23__is_constant_evaluatedv,"axG",@progbits,_ZSt23__is_constant_evaluatedv,comdat
	.weak	_ZSt23__is_constant_evaluatedv
	.type	_ZSt23__is_constant_evaluatedv, @function
_ZSt23__is_constant_evaluatedv:
.LFB1:
	.cfi_startproc
	endbr64
	pushq	%rbp
	.cfi_def_cfa_offset 16
	.cfi_offset 6, -16
	movq	%rsp, %rbp
	.cfi_def_cfa_register 6
	movl	$0, %eax
	popq	%rbp
	.cfi_def_cfa 7, 8
	ret
	.cfi_endproc
.LFE1:
	.size	_ZSt23__is_constant_evaluatedv, .-_ZSt23__is_constant_evaluatedv
	.section	.text._ZnwmPv,"axG",@progbits,_ZnwmPv,comdat
	.weak	_ZnwmPv
	.type	_ZnwmPv, @function
_ZnwmPv:
.LFB462:
	.cfi_startproc
	endbr64
	pushq	%rbp
	.cfi_def_cfa_offset 16
	.cfi_offset 6, -16
	movq	%rsp, %rbp
	.cfi_def_cfa_register 6
	movq	%rdi, -8(%rbp)
	movq	%rsi, -16(%rbp)
	movq	-16(%rbp), %rax
	popq	%rbp
	.cfi_def_cfa 7, 8
	ret
	.cfi_endproc
.LFE462:
	.size	_ZnwmPv, .-_ZnwmPv
	.section	.text._ZdlPvS_,"axG",@progbits,_ZdlPvS_,comdat
	.weak	_ZdlPvS_
	.type	_ZdlPvS_, @function
_ZdlPvS_:
.LFB464:
	.cfi_startproc
	endbr64
	pushq	%rbp
	.cfi_def_cfa_offset 16
	.cfi_offset 6, -16
	movq	%rsp, %rbp
	.cfi_def_cfa_register 6
	movq	%rdi, -8(%rbp)
	movq	%rsi, -16(%rbp)
	nop
	popq	%rbp
	.cfi_def_cfa 7, 8
	ret
	.cfi_endproc
.LFE464:
	.size	_ZdlPvS_, .-_ZdlPvS_
	.section	.rodata
	.align 4
	.type	_ZN9QtPrivateL10DeprecatedE, @object
	.size	_ZN9QtPrivateL10DeprecatedE, 4
_ZN9QtPrivateL10DeprecatedE:
	.zero	4
	.section	.text._ZN18QMessageLogContextC2EPKciS1_S1_,"axG",@progbits,_ZN18QMessageLogContextC5EPKciS1_S1_,comdat
	.align 2
	.weak	_ZN18QMessageLogContextC2EPKciS1_S1_
	.type	_ZN18QMessageLogContextC2EPKciS1_S1_, @function
_ZN18QMessageLogContextC2EPKciS1_S1_:
.LFB818:
	.cfi_startproc
	endbr64
	pushq	%rbp
	.cfi_def_cfa_offset 16
	.cfi_offset 6, -16
	movq	%rsp, %rbp
	.cfi_def_cfa_register 6
	movq	%rdi, -8(%rbp)
	movq	%rsi, -16(%rbp)
	movl	%edx, -20(%rbp)
	movq	%rcx, -32(%rbp)
	movq	%r8, -40(%rbp)
	movq	-8(%rbp), %rax
	movl	$2, (%rax)
	movq	-8(%rbp), %rax
	movl	-20(%rbp), %edx
	movl	%edx, 4(%rax)
	movq	-8(%rbp), %rax
	movq	-16(%rbp), %rdx
	movq	%rdx, 8(%rax)
	movq	-8(%rbp), %rax
	movq	-32(%rbp), %rdx
	movq	%rdx, 16(%rax)
	movq	-8(%rbp), %rax
	movq	-40(%rbp), %rdx
	movq	%rdx, 24(%rax)
	nop
	popq	%rbp
	.cfi_def_cfa 7, 8
	ret
	.cfi_endproc
.LFE818:
	.size	_ZN18QMessageLogContextC2EPKciS1_S1_, .-_ZN18QMessageLogContextC2EPKciS1_S1_
	.weak	_ZN18QMessageLogContextC1EPKciS1_S1_
	.set	_ZN18QMessageLogContextC1EPKciS1_S1_,_ZN18QMessageLogContextC2EPKciS1_S1_
	.section	.rodata
.LC0:
	.string	"default"
	.section	.text._ZN14QMessageLoggerC2EPKciS1_,"axG",@progbits,_ZN14QMessageLoggerC5EPKciS1_,comdat
	.align 2
	.weak	_ZN14QMessageLoggerC2EPKciS1_
	.type	_ZN14QMessageLoggerC2EPKciS1_, @function
_ZN14QMessageLoggerC2EPKciS1_:
.LFB827:
	.cfi_startproc
	endbr64
	pushq	%rbp
	.cfi_def_cfa_offset 16
	.cfi_offset 6, -16
	movq	%rsp, %rbp
	.cfi_def_cfa_register 6
	subq	$32, %rsp
	movq	%rdi, -8(%rbp)
	movq	%rsi, -16(%rbp)
	movl	%edx, -20(%rbp)
	movq	%rcx, -32(%rbp)
	movq	-8(%rbp), %rax
	movq	-32(%rbp), %rcx
	movl	-20(%rbp), %edx
	movq	-16(%rbp), %rsi
	leaq	.LC0(%rip), %r8
	movq	%rax, %rdi
	call	_ZN18QMessageLogContextC1EPKciS1_S1_@PLT
	nop
	leave
	.cfi_def_cfa 7, 8
	ret
	.cfi_endproc
.LFE827:
	.size	_ZN14QMessageLoggerC2EPKciS1_, .-_ZN14QMessageLoggerC2EPKciS1_
	.weak	_ZN14QMessageLoggerC1EPKciS1_
	.set	_ZN14QMessageLoggerC1EPKciS1_,_ZN14QMessageLoggerC2EPKciS1_
	.section	.text._ZN5QFlagC2Ei,"axG",@progbits,_ZN5QFlagC5Ei,comdat
	.align 2
	.weak	_ZN5QFlagC2Ei
	.type	_ZN5QFlagC2Ei, @function
_ZN5QFlagC2Ei:
.LFB834:
	.cfi_startproc
	endbr64
	pushq	%rbp
	.cfi_def_cfa_offset 16
	.cfi_offset 6, -16
	movq	%rsp, %rbp
	.cfi_def_cfa_register 6
	movq	%rdi, -8(%rbp)
	movl	%esi, -12(%rbp)
	movq	-8(%rbp), %rax
	movl	-12(%rbp), %edx
	movl	%edx, (%rax)
	nop
	popq	%rbp
	.cfi_def_cfa 7, 8
	ret
	.cfi_endproc
.LFE834:
	.size	_ZN5QFlagC2Ei, .-_ZN5QFlagC2Ei
	.weak	_ZN5QFlagC1Ei
	.set	_ZN5QFlagC1Ei,_ZN5QFlagC2Ei
	.section	.text._ZNK5QFlagcviEv,"axG",@progbits,_ZNK5QFlagcviEv,comdat
	.align 2
	.weak	_ZNK5QFlagcviEv
	.type	_ZNK5QFlagcviEv, @function
_ZNK5QFlagcviEv:
.LFB836:
	.cfi_startproc
	endbr64
	pushq	%rbp
	.cfi_def_cfa_offset 16
	.cfi_offset 6, -16
	movq	%rsp, %rbp
	.cfi_def_cfa_register 6
	movq	%rdi, -8(%rbp)
	movq	-8(%rbp), %rax
	movl	(%rax), %eax
	popq	%rbp
	.cfi_def_cfa 7, 8
	ret
	.cfi_endproc
.LFE836:
	.size	_ZNK5QFlagcviEv, .-_ZNK5QFlagcviEv
	.section	.text._ZN5QFlagC2Ej,"axG",@progbits,_ZN5QFlagC5Ej,comdat
	.align 2
	.weak	_ZN5QFlagC2Ej
	.type	_ZN5QFlagC2Ej, @function
_ZN5QFlagC2Ej:
.LFB838:
	.cfi_startproc
	endbr64
	pushq	%rbp
	.cfi_def_cfa_offset 16
	.cfi_offset 6, -16
	movq	%rsp, %rbp
	.cfi_def_cfa_register 6
	movq	%rdi, -8(%rbp)
	movl	%esi, -12(%rbp)
	movl	-12(%rbp), %edx
	movq	-8(%rbp), %rax
	movl	%edx, (%rax)
	nop
	popq	%rbp
	.cfi_def_cfa 7, 8
	ret
	.cfi_endproc
.LFE838:
	.size	_ZN5QFlagC2Ej, .-_ZN5QFlagC2Ej
	.weak	_ZN5QFlagC1Ej
	.set	_ZN5QFlagC1Ej,_ZN5QFlagC2Ej
	.section	.text._ZNK5QFlagcvjEv,"axG",@progbits,_ZNK5QFlagcvjEv,comdat
	.align 2
	.weak	_ZNK5QFlagcvjEv
	.type	_ZNK5QFlagcvjEv, @function
_ZNK5QFlagcvjEv:
.LFB846:
	.cfi_startproc
	endbr64
	pushq	%rbp
	.cfi_def_cfa_offset 16
	.cfi_offset 6, -16
	movq	%rsp, %rbp
	.cfi_def_cfa_register 6
	movq	%rdi, -8(%rbp)
	movq	-8(%rbp), %rax
	movl	(%rax), %eax
	popq	%rbp
	.cfi_def_cfa 7, 8
	ret
	.cfi_endproc
.LFE846:
	.size	_ZNK5QFlagcvjEv, .-_ZNK5QFlagcvjEv
	.section	.text._ZStanSt12memory_orderSt23__memory_order_modifier,"axG",@progbits,_ZStanSt12memory_orderSt23__memory_order_modifier,comdat
	.weak	_ZStanSt12memory_orderSt23__memory_order_modifier
	.type	_ZStanSt12memory_orderSt23__memory_order_modifier, @function
_ZStanSt12memory_orderSt23__memory_order_modifier:
.LFB932:
	.cfi_startproc
	endbr64
	pushq	%rbp
	.cfi_def_cfa_offset 16
	.cfi_offset 6, -16
	movq	%rsp, %rbp
	.cfi_def_cfa_register 6
	movl	%edi, -4(%rbp)
	movl	%esi, -8(%rbp)
	movl	-4(%rbp), %edx
	movl	-8(%rbp), %eax
	andl	%edx, %eax
	popq	%rbp
	.cfi_def_cfa 7, 8
	ret
	.cfi_endproc
.LFE932:
	.size	_ZStanSt12memory_orderSt23__memory_order_modifier, .-_ZStanSt12memory_orderSt23__memory_order_modifier
	.section	.text._ZNSt6atomicIiEC2Ei,"axG",@progbits,_ZNSt6atomicIiEC5Ei,comdat
	.align 2
	.weak	_ZNSt6atomicIiEC2Ei
	.type	_ZNSt6atomicIiEC2Ei, @function
_ZNSt6atomicIiEC2Ei:
.LFB1131:
	.cfi_startproc
	endbr64
	pushq	%rbp
	.cfi_def_cfa_offset 16
	.cfi_offset 6, -16
	movq	%rsp, %rbp
	.cfi_def_cfa_register 6
	subq	$16, %rsp
	movq	%rdi, -8(%rbp)
	movl	%esi, -12(%rbp)
	movq	-8(%rbp), %rax
	movl	-12(%rbp), %edx
	movl	%edx, %esi
	movq	%rax, %rdi
	call	_ZNSt13__atomic_baseIiEC2Ei@PLT
	nop
	leave
	.cfi_def_cfa 7, 8
	ret
	.cfi_endproc
.LFE1131:
	.size	_ZNSt6atomicIiEC2Ei, .-_ZNSt6atomicIiEC2Ei
	.weak	_ZNSt6atomicIiEC1Ei
	.set	_ZNSt6atomicIiEC1Ei,_ZNSt6atomicIiEC2Ei
	.section	.text._ZN10QAtomicIntC2Ei,"axG",@progbits,_ZN10QAtomicIntC5Ei,comdat
	.align 2
	.weak	_ZN10QAtomicIntC2Ei
	.type	_ZN10QAtomicIntC2Ei, @function
_ZN10QAtomicIntC2Ei:
.LFB1365:
	.cfi_startproc
	endbr64
	pushq	%rbp
	.cfi_def_cfa_offset 16
	.cfi_offset 6, -16
	movq	%rsp, %rbp
	.cfi_def_cfa_register 6
	subq	$16, %rsp
	movq	%rdi, -8(%rbp)
	movl	%esi, -12(%rbp)
	movq	-8(%rbp), %rax
	movl	-12(%rbp), %edx
	movl	%edx, %esi
	movq	%rax, %rdi
	call	_ZN14QAtomicIntegerIiEC2Ei@PLT
	nop
	leave
	.cfi_def_cfa 7, 8
	ret
	.cfi_endproc
.LFE1365:
	.size	_ZN10QAtomicIntC2Ei, .-_ZN10QAtomicIntC2Ei
	.weak	_ZN10QAtomicIntC1Ei
	.set	_ZN10QAtomicIntC1Ei,_ZN10QAtomicIntC2Ei
#APP
	.section .qtversion, "aG", @progbits, qt_version_tag, comdat
.align 8
.quad qt_version_tag@GOT
.long ((5<<16)|(15<<8)|(13))
.align 8
.previous
#NO_APP
	.section	.rodata
	.align 4
	.type	_ZN2QtL13UninitializedE, @object
	.size	_ZN2QtL13UninitializedE, 4
_ZN2QtL13UninitializedE:
	.zero	4
	.section	.text._ZN9QtPrivate15QSlotObjectBaseC2EPFviPS0_P7QObjectPPvPbE,"axG",@progbits,_ZN9QtPrivate15QSlotObjectBaseC5EPFviPS0_P7QObjectPPvPbE,comdat
	.align 2
	.weak	_ZN9QtPrivate15QSlotObjectBaseC2EPFviPS0_P7QObjectPPvPbE
	.type	_ZN9QtPrivate15QSlotObjectBaseC2EPFviPS0_P7QObjectPPvPbE, @function
_ZN9QtPrivate15QSlotObjectBaseC2EPFviPS0_P7QObjectPPvPbE:
.LFB1637:
	.cfi_startproc
	endbr64
	pushq	%rbp
	.cfi_def_cfa_offset 16
	.cfi_offset 6, -16
	movq	%rsp, %rbp
	.cfi_def_cfa_register 6
	subq	$16, %rsp
	movq	%rdi, -8(%rbp)
	movq	%rsi, -16(%rbp)
	movq	-8(%rbp), %rax
	movl	$1, %esi
	movq	%rax, %rdi
	call	_ZN10QAtomicIntC1Ei@PLT
	movq	-8(%rbp), %rax
	movq	-16(%rbp), %rdx
	movq	%rdx, 8(%rax)
	nop
	leave
	.cfi_def_cfa 7, 8
	ret
	.cfi_endproc
.LFE1637:
	.size	_ZN9QtPrivate15QSlotObjectBaseC2EPFviPS0_P7QObjectPPvPbE, .-_ZN9QtPrivate15QSlotObjectBaseC2EPFviPS0_P7QObjectPPvPbE
	.weak	_ZN9QtPrivate15QSlotObjectBaseC1EPFviPS0_P7QObjectPPvPbE
	.set	_ZN9QtPrivate15QSlotObjectBaseC1EPFviPS0_P7QObjectPPvPbE,_ZN9QtPrivate15QSlotObjectBaseC2EPFviPS0_P7QObjectPPvPbE
	.section	.text._ZN9QtPrivate15QSlotObjectBaseD2Ev,"axG",@progbits,_ZN9QtPrivate15QSlotObjectBaseD5Ev,comdat
	.align 2
	.weak	_ZN9QtPrivate15QSlotObjectBaseD2Ev
	.type	_ZN9QtPrivate15QSlotObjectBaseD2Ev, @function
_ZN9QtPrivate15QSlotObjectBaseD2Ev:
.LFB1644:
	.cfi_startproc
	endbr64
	pushq	%rbp
	.cfi_def_cfa_offset 16
	.cfi_offset 6, -16
	movq	%rsp, %rbp
	.cfi_def_cfa_register 6
	movq	%rdi, -8(%rbp)
	nop
	popq	%rbp
	.cfi_def_cfa 7, 8
	ret
	.cfi_endproc
.LFE1644:
	.size	_ZN9QtPrivate15QSlotObjectBaseD2Ev, .-_ZN9QtPrivate15QSlotObjectBaseD2Ev
	.weak	_ZN9QtPrivate15QSlotObjectBaseD1Ev
	.set	_ZN9QtPrivate15QSlotObjectBaseD1Ev,_ZN9QtPrivate15QSlotObjectBaseD2Ev
	.section	.text._ZN11QLatin1CharC2Ec,"axG",@progbits,_ZN11QLatin1CharC5Ec,comdat
	.align 2
	.weak	_ZN11QLatin1CharC2Ec
	.type	_ZN11QLatin1CharC2Ec, @function
_ZN11QLatin1CharC2Ec:
.LFB1691:
	.cfi_startproc
	endbr64
	pushq	%rbp
	.cfi_def_cfa_offset 16
	.cfi_offset 6, -16
	movq	%rsp, %rbp
	.cfi_def_cfa_register 6
	movq	%rdi, -8(%rbp)
	movl	%esi, %eax
	movb	%al, -12(%rbp)
	movq	-8(%rbp), %rax
	movzbl	-12(%rbp), %edx
	movb	%dl, (%rax)
	nop
	popq	%rbp
	.cfi_def_cfa 7, 8
	ret
	.cfi_endproc
.LFE1691:
	.size	_ZN11QLatin1CharC2Ec, .-_ZN11QLatin1CharC2Ec
	.weak	_ZN11QLatin1CharC1Ec
	.set	_ZN11QLatin1CharC1Ec,_ZN11QLatin1CharC2Ec
	.section	.text._ZNK11QLatin1Char7unicodeEv,"axG",@progbits,_ZNK11QLatin1Char7unicodeEv,comdat
	.align 2
	.weak	_ZNK11QLatin1Char7unicodeEv
	.type	_ZNK11QLatin1Char7unicodeEv, @function
_ZNK11QLatin1Char7unicodeEv:
.LFB1694:
	.cfi_startproc
	endbr64
	pushq	%rbp
	.cfi_def_cfa_offset 16
	.cfi_offset 6, -16
	movq	%rsp, %rbp
	.cfi_def_cfa_register 6
	movq	%rdi, -8(%rbp)
	movq	-8(%rbp), %rax
	movzbl	(%rax), %eax
	movzbl	%al, %eax
	popq	%rbp
	.cfi_def_cfa 7, 8
	ret
	.cfi_endproc
.LFE1694:
	.size	_ZNK11QLatin1Char7unicodeEv, .-_ZNK11QLatin1Char7unicodeEv
	.section	.text._ZN5QCharC2Ei,"axG",@progbits,_ZN5QCharC5Ei,comdat
	.align 2
	.weak	_ZN5QCharC2Ei
	.type	_ZN5QCharC2Ei, @function
_ZN5QCharC2Ei:
.LFB1723:
	.cfi_startproc
	endbr64
	pushq	%rbp
	.cfi_def_cfa_offset 16
	.cfi_offset 6, -16
	movq	%rsp, %rbp
	.cfi_def_cfa_register 6
	movq	%rdi, -8(%rbp)
	movl	%esi, -12(%rbp)
	movl	-12(%rbp), %eax
	movl	%eax, %edx
	movq	-8(%rbp), %rax
	movw	%dx, (%rax)
	nop
	popq	%rbp
	.cfi_def_cfa 7, 8
	ret
	.cfi_endproc
.LFE1723:
	.size	_ZN5QCharC2Ei, .-_ZN5QCharC2Ei
	.weak	_ZN5QCharC1Ei
	.set	_ZN5QCharC1Ei,_ZN5QCharC2Ei
	.section	.text._ZN5QCharC2E11QLatin1Char,"axG",@progbits,_ZN5QCharC5E11QLatin1Char,comdat
	.align 2
	.weak	_ZN5QCharC2E11QLatin1Char
	.type	_ZN5QCharC2E11QLatin1Char, @function
_ZN5QCharC2E11QLatin1Char:
.LFB1729:
	.cfi_startproc
	endbr64
	pushq	%rbp
	.cfi_def_cfa_offset 16
	.cfi_offset 6, -16
	movq	%rsp, %rbp
	.cfi_def_cfa_register 6
	subq	$16, %rsp
	movq	%rdi, -8(%rbp)
	movb	%sil, -9(%rbp)
	leaq	-9(%rbp), %rax
	movq	%rax, %rdi
	call	_ZNK11QLatin1Char7unicodeEv@PLT
	movq	-8(%rbp), %rdx
	movw	%ax, (%rdx)
	nop
	leave
	.cfi_def_cfa 7, 8
	ret
	.cfi_endproc
.LFE1729:
	.size	_ZN5QCharC2E11QLatin1Char, .-_ZN5QCharC2E11QLatin1Char
	.weak	_ZN5QCharC1E11QLatin1Char
	.set	_ZN5QCharC1E11QLatin1Char,_ZN5QCharC2E11QLatin1Char
	.section	.text._ZN5QChar7unicodeEv,"axG",@progbits,_ZN5QChar7unicodeEv,comdat
	.align 2
	.weak	_ZN5QChar7unicodeEv
	.type	_ZN5QChar7unicodeEv, @function
_ZN5QChar7unicodeEv:
.LFB1757:
	.cfi_startproc
	endbr64
	pushq	%rbp
	.cfi_def_cfa_offset 16
	.cfi_offset 6, -16
	movq	%rsp, %rbp
	.cfi_def_cfa_register 6
	movq	%rdi, -8(%rbp)
	movq	-8(%rbp), %rax
	popq	%rbp
	.cfi_def_cfa 7, 8
	ret
	.cfi_endproc
.LFE1757:
	.size	_ZN5QChar7unicodeEv, .-_ZN5QChar7unicodeEv
	.section	.text._ZN9QtPrivate8RefCount3refEv,"axG",@progbits,_ZN9QtPrivate8RefCount3refEv,comdat
	.align 2
	.weak	_ZN9QtPrivate8RefCount3refEv
	.type	_ZN9QtPrivate8RefCount3refEv, @function
_ZN9QtPrivate8RefCount3refEv:
.LFB1819:
	.cfi_startproc
	endbr64
	pushq	%rbp
	.cfi_def_cfa_offset 16
	.cfi_offset 6, -16
	movq	%rsp, %rbp
	.cfi_def_cfa_register 6
	subq	$32, %rsp
	movq	%rdi, -24(%rbp)
	movq	-24(%rbp), %rax
	movq	%rax, %rdi
	call	_ZNK19QBasicAtomicIntegerIiE11loadRelaxedEv@PLT
	movl	%eax, -4(%rbp)
	cmpl	$0, -4(%rbp)
	jne	.L28
	movl	$0, %eax
	jmp	.L29
.L28:
	cmpl	$-1, -4(%rbp)
	je	.L30
	movq	-24(%rbp), %rax
	movq	%rax, %rdi
	call	_ZN19QBasicAtomicIntegerIiE3refEv@PLT
.L30:
	movl	$1, %eax
.L29:
	leave
	.cfi_def_cfa 7, 8
	ret
	.cfi_endproc
.LFE1819:
	.size	_ZN9QtPrivate8RefCount3refEv, .-_ZN9QtPrivate8RefCount3refEv
	.section	.text._ZN9QtPrivate8RefCount5derefEv,"axG",@progbits,_ZN9QtPrivate8RefCount5derefEv,comdat
	.align 2
	.weak	_ZN9QtPrivate8RefCount5derefEv
	.type	_ZN9QtPrivate8RefCount5derefEv, @function
_ZN9QtPrivate8RefCount5derefEv:
.LFB1820:
	.cfi_startproc
	endbr64
	pushq	%rbp
	.cfi_def_cfa_offset 16
	.cfi_offset 6, -16
	movq	%rsp, %rbp
	.cfi_def_cfa_register 6
	subq	$32, %rsp
	movq	%rdi, -24(%rbp)
	movq	-24(%rbp), %rax
	movq	%rax, %rdi
	call	_ZNK19QBasicAtomicIntegerIiE11loadRelaxedEv@PLT
	movl	%eax, -4(%rbp)
	cmpl	$0, -4(%rbp)
	jne	.L32
	movl	$0, %eax
	jmp	.L33
.L32:
	cmpl	$-1, -4(%rbp)
	jne	.L34
	movl	$1, %eax
	jmp	.L33
.L34:
	movq	-24(%rbp), %rax
	movq	%rax, %rdi
	call	_ZN19QBasicAtomicIntegerIiE5derefEv@PLT
	nop
.L33:
	leave
	.cfi_def_cfa 7, 8
	ret
	.cfi_endproc
.LFE1820:
	.size	_ZN9QtPrivate8RefCount5derefEv, .-_ZN9QtPrivate8RefCount5derefEv
	.section	.text._ZNK9QtPrivate8RefCount8isSharedEv,"axG",@progbits,_ZNK9QtPrivate8RefCount8isSharedEv,comdat
	.align 2
	.weak	_ZNK9QtPrivate8RefCount8isSharedEv
	.type	_ZNK9QtPrivate8RefCount8isSharedEv, @function
_ZNK9QtPrivate8RefCount8isSharedEv:
.LFB1824:
	.cfi_startproc
	endbr64
	pushq	%rbp
	.cfi_def_cfa_offset 16
	.cfi_offset 6, -16
	movq	%rsp, %rbp
	.cfi_def_cfa_register 6
	subq	$32, %rsp
	movq	%rdi, -24(%rbp)
	movq	-24(%rbp), %rax
	movq	%rax, %rdi
	call	_ZNK19QBasicAtomicIntegerIiE11loadRelaxedEv@PLT
	movl	%eax, -4(%rbp)
	cmpl	$1, -4(%rbp)
	je	.L36
	cmpl	$0, -4(%rbp)
	je	.L36
	movl	$1, %eax
	jmp	.L37
.L36:
	movl	$0, %eax
.L37:
	leave
	.cfi_def_cfa 7, 8
	ret
	.cfi_endproc
.LFE1824:
	.size	_ZNK9QtPrivate8RefCount8isSharedEv, .-_ZNK9QtPrivate8RefCount8isSharedEv
	.section	.text._ZN10QArrayData4dataEv,"axG",@progbits,_ZN10QArrayData4dataEv,comdat
	.align 2
	.weak	_ZN10QArrayData4dataEv
	.type	_ZN10QArrayData4dataEv, @function
_ZN10QArrayData4dataEv:
.LFB1827:
	.cfi_startproc
	endbr64
	pushq	%rbp
	.cfi_def_cfa_offset 16
	.cfi_offset 6, -16
	movq	%rsp, %rbp
	.cfi_def_cfa_register 6
	movq	%rdi, -24(%rbp)
	movq	-24(%rbp), %rax
	movq	%rax, -8(%rbp)
	movq	-24(%rbp), %rax
	movq	16(%rax), %rax
	movq	%rax, %rdx
	movq	-8(%rbp), %rax
	addq	%rdx, %rax
	popq	%rbp
	.cfi_def_cfa 7, 8
	ret
	.cfi_endproc
.LFE1827:
	.size	_ZN10QArrayData4dataEv, .-_ZN10QArrayData4dataEv
	.section	.text._ZNK10QArrayData11detachFlagsEv,"axG",@progbits,_ZNK10QArrayData11detachFlagsEv,comdat
	.align 2
	.weak	_ZNK10QArrayData11detachFlagsEv
	.type	_ZNK10QArrayData11detachFlagsEv, @function
_ZNK10QArrayData11detachFlagsEv:
.LFB1831:
	.cfi_startproc
	endbr64
	pushq	%rbp
	.cfi_def_cfa_offset 16
	.cfi_offset 6, -16
	movq	%rsp, %rbp
	.cfi_def_cfa_register 6
	subq	$32, %rsp
	movq	%rdi, -24(%rbp)
	movq	%fs:40, %rax
	movq	%rax, -8(%rbp)
	xorl	%eax, %eax
	movl	$0, -12(%rbp)
	movq	-24(%rbp), %rax
	movzbl	11(%rax), %eax
	andl	$-128, %eax
	testb	%al, %al
	je	.L42
	leaq	-12(%rbp), %rax
	movl	$1, %esi
	movq	%rax, %rdi
	call	_ZN6QFlagsIN10QArrayData16AllocationOptionEEoRES1_@PLT
.L42:
	movl	-12(%rbp), %eax
	movq	-8(%rbp), %rdx
	subq	%fs:40, %rdx
	je	.L44
	call	__stack_chk_fail@PLT
.L44:
	leave
	.cfi_def_cfa 7, 8
	ret
	.cfi_endproc
.LFE1831:
	.size	_ZNK10QArrayData11detachFlagsEv, .-_ZNK10QArrayData11detachFlagsEv
	.section	.text._ZN10QArrayData10sharedNullEv,"axG",@progbits,_ZN10QArrayData10sharedNullEv,comdat
	.weak	_ZN10QArrayData10sharedNullEv
	.type	_ZN10QArrayData10sharedNullEv, @function
_ZN10QArrayData10sharedNullEv:
.LFB1836:
	.cfi_startproc
	endbr64
	pushq	%rbp
	.cfi_def_cfa_offset 16
	.cfi_offset 6, -16
	movq	%rsp, %rbp
	.cfi_def_cfa_register 6
	movq	_ZN10QArrayData11shared_nullE@GOTPCREL(%rip), %rax
	popq	%rbp
	.cfi_def_cfa 7, 8
	ret
	.cfi_endproc
.LFE1836:
	.size	_ZN10QArrayData10sharedNullEv, .-_ZN10QArrayData10sharedNullEv
	.section	.text._Z7qstrlenPKc,"axG",@progbits,_Z7qstrlenPKc,comdat
	.weak	_Z7qstrlenPKc
	.type	_Z7qstrlenPKc, @function
_Z7qstrlenPKc:
.LFB3146:
	.cfi_startproc
	endbr64
	pushq	%rbp
	.cfi_def_cfa_offset 16
	.cfi_offset 6, -16
	movq	%rsp, %rbp
	.cfi_def_cfa_register 6
	subq	$16, %rsp
	movq	%rdi, -8(%rbp)
	cmpq	$0, -8(%rbp)
	je	.L48
	movq	-8(%rbp), %rax
	movq	%rax, %rdi
	call	strlen@PLT
	jmp	.L50
.L48:
	movl	$0, %eax
.L50:
	leave
	.cfi_def_cfa 7, 8
	ret
	.cfi_endproc
.LFE3146:
	.size	_Z7qstrlenPKc, .-_Z7qstrlenPKc
	.section	.text._ZN10QByteArrayC2Ev,"axG",@progbits,_ZN10QByteArrayC5Ev,comdat
	.align 2
	.weak	_ZN10QByteArrayC2Ev
	.type	_ZN10QByteArrayC2Ev, @function
_ZN10QByteArrayC2Ev:
.LFB3186:
	.cfi_startproc
	endbr64
	pushq	%rbp
	.cfi_def_cfa_offset 16
	.cfi_offset 6, -16
	movq	%rsp, %rbp
	.cfi_def_cfa_register 6
	subq	$16, %rsp
	movq	%rdi, -8(%rbp)
	call	_ZN15QTypedArrayDataIcE10sharedNullEv@PLT
	movq	-8(%rbp), %rdx
	movq	%rax, (%rdx)
	nop
	leave
	.cfi_def_cfa 7, 8
	ret
	.cfi_endproc
.LFE3186:
	.size	_ZN10QByteArrayC2Ev, .-_ZN10QByteArrayC2Ev
	.weak	_ZN10QByteArrayC1Ev
	.set	_ZN10QByteArrayC1Ev,_ZN10QByteArrayC2Ev
	.section	.text._ZN10QByteArrayD2Ev,"axG",@progbits,_ZN10QByteArrayD5Ev,comdat
	.align 2
	.weak	_ZN10QByteArrayD2Ev
	.type	_ZN10QByteArrayD2Ev, @function
_ZN10QByteArrayD2Ev:
.LFB3189:
	.cfi_startproc
	endbr64
	pushq	%rbp
	.cfi_def_cfa_offset 16
	.cfi_offset 6, -16
	movq	%rsp, %rbp
	.cfi_def_cfa_register 6
	subq	$16, %rsp
	movq	%rdi, -8(%rbp)
	movq	-8(%rbp), %rax
	movq	(%rax), %rax
	movq	%rax, %rdi
	call	_ZN9QtPrivate8RefCount5derefEv@PLT
	xorl	$1, %eax
	testb	%al, %al
	je	.L54
	movq	-8(%rbp), %rax
	movq	(%rax), %rax
	movq	%rax, %rdi
	call	_ZN15QTypedArrayDataIcE10deallocateEP10QArrayData@PLT
.L54:
	nop
	leave
	.cfi_def_cfa 7, 8
	ret
	.cfi_endproc
.LFE3189:
	.size	_ZN10QByteArrayD2Ev, .-_ZN10QByteArrayD2Ev
	.weak	_ZN10QByteArrayD1Ev
	.set	_ZN10QByteArrayD1Ev,_ZN10QByteArrayD2Ev
	.section	.text._ZNK10QByteArray4sizeEv,"axG",@progbits,_ZNK10QByteArray4sizeEv,comdat
	.align 2
	.weak	_ZNK10QByteArray4sizeEv
	.type	_ZNK10QByteArray4sizeEv, @function
_ZNK10QByteArray4sizeEv:
.LFB3191:
	.cfi_startproc
	endbr64
	pushq	%rbp
	.cfi_def_cfa_offset 16
	.cfi_offset 6, -16
	movq	%rsp, %rbp
	.cfi_def_cfa_register 6
	movq	%rdi, -8(%rbp)
	movq	-8(%rbp), %rax
	movq	(%rax), %rax
	movl	4(%rax), %eax
	popq	%rbp
	.cfi_def_cfa 7, 8
	ret
	.cfi_endproc
.LFE3191:
	.size	_ZNK10QByteArray4sizeEv, .-_ZNK10QByteArray4sizeEv
	.section	.text._ZN10QByteArray7reserveEi,"axG",@progbits,_ZN10QByteArray7reserveEi,comdat
	.align 2
	.weak	_ZN10QByteArray7reserveEi
	.type	_ZN10QByteArray7reserveEi, @function
_ZN10QByteArray7reserveEi:
.LFB3207:
	.cfi_startproc
	endbr64
	pushq	%rbp
	.cfi_def_cfa_offset 16
	.cfi_offset 6, -16
	movq	%rsp, %rbp
	.cfi_def_cfa_register 6
	pushq	%rbx
	subq	$56, %rsp
	.cfi_offset 3, -24
	movq	%rdi, -56(%rbp)
	movl	%esi, -60(%rbp)
	movq	%fs:40, %rax
	movq	%rax, -24(%rbp)
	xorl	%eax, %eax
	movq	-56(%rbp), %rax
	movq	(%rax), %rax
	movq	%rax, %rdi
	call	_ZNK9QtPrivate8RefCount8isSharedEv@PLT
	testb	%al, %al
	jne	.L58
	movl	-60(%rbp), %eax
	leal	1(%rax), %edx
	movq	-56(%rbp), %rax
	movq	(%rax), %rax
	movl	8(%rax), %eax
	andl	$2147483647, %eax
	cmpl	%edx, %eax
	jnb	.L59
.L58:
	movl	$1, %eax
	jmp	.L60
.L59:
	movl	$0, %eax
.L60:
	testb	%al, %al
	je	.L61
	movq	-56(%rbp), %rax
	movq	(%rax), %rax
	movq	%rax, %rdi
	call	_ZNK10QArrayData11detachFlagsEv@PLT
	movl	%eax, -28(%rbp)
	leaq	-28(%rbp), %rax
	movl	$1, %esi
	movq	%rax, %rdi
	call	_ZNK6QFlagsIN10QArrayData16AllocationOptionEEorES1_@PLT
	movl	%eax, %ebx
	movl	-60(%rbp), %eax
	movl	%eax, -32(%rbp)
	movq	-56(%rbp), %rax
	movq	%rax, %rdi
	call	_ZNK10QByteArray4sizeEv@PLT
	movl	%eax, -36(%rbp)
	leaq	-32(%rbp), %rdx
	leaq	-36(%rbp), %rax
	movq	%rdx, %rsi
	movq	%rax, %rdi
	call	_Z4qMaxIjERKT_S2_S2_@PLT
	movl	(%rax), %eax
	leal	1(%rax), %ecx
	movq	-56(%rbp), %rax
	movl	%ebx, %edx
	movl	%ecx, %esi
	movq	%rax, %rdi
	call	_ZN10QByteArray11reallocDataEj6QFlagsIN10QArrayData16AllocationOptionEE@PLT
	jmp	.L64
.L61:
	movq	-56(%rbp), %rax
	movq	(%rax), %rax
	movzbl	11(%rax), %edx
	orl	$-128, %edx
	movb	%dl, 11(%rax)
.L64:
	nop
	movq	-24(%rbp), %rax
	subq	%fs:40, %rax
	je	.L63
	call	__stack_chk_fail@PLT
.L63:
	movq	-8(%rbp), %rbx
	leave
	.cfi_def_cfa 7, 8
	ret
	.cfi_endproc
.LFE3207:
	.size	_ZN10QByteArray7reserveEi, .-_ZN10QByteArray7reserveEi
	.section	.text._ZN13QLatin1StringC2EPKc,"axG",@progbits,_ZN13QLatin1StringC5EPKc,comdat
	.align 2
	.weak	_ZN13QLatin1StringC2EPKc
	.type	_ZN13QLatin1StringC2EPKc, @function
_ZN13QLatin1StringC2EPKc:
.LFB3380:
	.cfi_startproc
	endbr64
	pushq	%rbp
	.cfi_def_cfa_offset 16
	.cfi_offset 6, -16
	movq	%rsp, %rbp
	.cfi_def_cfa_register 6
	subq	$16, %rsp
	movq	%rdi, -8(%rbp)
	movq	%rsi, -16(%rbp)
	cmpq	$0, -16(%rbp)
	je	.L66
	movq	-16(%rbp), %rax
	movq	%rax, %rdi
	call	strlen@PLT
	movl	%eax, %edx
	jmp	.L67
.L66:
	movl	$0, %edx
.L67:
	movq	-8(%rbp), %rax
	movl	%edx, (%rax)
	movq	-8(%rbp), %rax
	movq	-16(%rbp), %rdx
	movq	%rdx, 8(%rax)
	nop
	leave
	.cfi_def_cfa 7, 8
	ret
	.cfi_endproc
.LFE3380:
	.size	_ZN13QLatin1StringC2EPKc, .-_ZN13QLatin1StringC2EPKc
	.weak	_ZN13QLatin1StringC1EPKc
	.set	_ZN13QLatin1StringC1EPKc,_ZN13QLatin1StringC2EPKc
	.section	.text._ZN7QStringaSEOS_,"axG",@progbits,_ZN7QStringaSEOS_,comdat
	.align 2
	.weak	_ZN7QStringaSEOS_
	.type	_ZN7QStringaSEOS_, @function
_ZN7QStringaSEOS_:
.LFB3451:
	.cfi_startproc
	endbr64
	pushq	%rbp
	.cfi_def_cfa_offset 16
	.cfi_offset 6, -16
	movq	%rsp, %rbp
	.cfi_def_cfa_register 6
	subq	$16, %rsp
	movq	%rdi, -8(%rbp)
	movq	%rsi, -16(%rbp)
	movq	-16(%rbp), %rdx
	movq	-8(%rbp), %rax
	movq	%rdx, %rsi
	movq	%rax, %rdi
	call	_Z5qSwapIP15QTypedArrayDataItEEvRT_S4_@PLT
	movq	-8(%rbp), %rax
	leave
	.cfi_def_cfa 7, 8
	ret
	.cfi_endproc
.LFE3451:
	.size	_ZN7QStringaSEOS_, .-_ZN7QStringaSEOS_
	.section	.text._ZNK7QString4sizeEv,"axG",@progbits,_ZNK7QString4sizeEv,comdat
	.align 2
	.weak	_ZNK7QString4sizeEv
	.type	_ZNK7QString4sizeEv, @function
_ZNK7QString4sizeEv:
.LFB3454:
	.cfi_startproc
	endbr64
	pushq	%rbp
	.cfi_def_cfa_offset 16
	.cfi_offset 6, -16
	movq	%rsp, %rbp
	.cfi_def_cfa_register 6
	movq	%rdi, -8(%rbp)
	movq	-8(%rbp), %rax
	movq	(%rax), %rax
	movl	4(%rax), %eax
	popq	%rbp
	.cfi_def_cfa 7, 8
	ret
	.cfi_endproc
.LFE3454:
	.size	_ZNK7QString4sizeEv, .-_ZNK7QString4sizeEv
	.section	.text._ZNO7QString7trimmedEv,"axG",@progbits,_ZNO7QString7trimmedEv,comdat
	.align 2
	.weak	_ZNO7QString7trimmedEv
	.type	_ZNO7QString7trimmedEv, @function
_ZNO7QString7trimmedEv:
.LFB3474:
	.cfi_startproc
	endbr64
	pushq	%rbp
	.cfi_def_cfa_offset 16
	.cfi_offset 6, -16
	movq	%rsp, %rbp
	.cfi_def_cfa_register 6
	subq	$32, %rsp
	movq	%rdi, -24(%rbp)
	movq	%rsi, -32(%rbp)
	movq	%fs:40, %rax
	movq	%rax, -8(%rbp)
	xorl	%eax, %eax
	movq	-24(%rbp), %rax
	movq	-32(%rbp), %rdx
	movq	%rdx, %rsi
	movq	%rax, %rdi
	call	_ZN7QString14trimmed_helperERS_@PLT
	movq	-8(%rbp), %rax
	subq	%fs:40, %rax
	je	.L74
	call	__stack_chk_fail@PLT
.L74:
	movq	-24(%rbp), %rax
	leave
	.cfi_def_cfa 7, 8
	ret
	.cfi_endproc
.LFE3474:
	.size	_ZNO7QString7trimmedEv, .-_ZNO7QString7trimmedEv
	.section	.text._ZN7QStringpLE5QChar,"axG",@progbits,_ZN7QStringpLE5QChar,comdat
	.align 2
	.weak	_ZN7QStringpLE5QChar
	.type	_ZN7QStringpLE5QChar, @function
_ZN7QStringpLE5QChar:
.LFB3486:
	.cfi_startproc
	endbr64
	pushq	%rbp
	.cfi_def_cfa_offset 16
	.cfi_offset 6, -16
	movq	%rsp, %rbp
	.cfi_def_cfa_register 6
	pushq	%rbx
	subq	$24, %rsp
	.cfi_offset 3, -24
	movq	%rdi, -24(%rbp)
	movw	%si, -26(%rbp)
	movq	-24(%rbp), %rax
	movq	(%rax), %rax
	movq	%rax, %rdi
	call	_ZNK9QtPrivate8RefCount8isSharedEv@PLT
	testb	%al, %al
	jne	.L76
	movq	-24(%rbp), %rax
	movq	(%rax), %rax
	movl	4(%rax), %eax
	leal	2(%rax), %edx
	movq	-24(%rbp), %rax
	movq	(%rax), %rax
	movl	8(%rax), %eax
	andl	$2147483647, %eax
	cmpl	%edx, %eax
	jnb	.L77
.L76:
	movl	$1, %eax
	jmp	.L78
.L77:
	movl	$0, %eax
.L78:
	testb	%al, %al
	je	.L79
	movq	-24(%rbp), %rax
	movq	(%rax), %rax
	movl	4(%rax), %eax
	leal	2(%rax), %ecx
	movq	-24(%rbp), %rax
	movl	$1, %edx
	movl	%ecx, %esi
	movq	%rax, %rdi
	call	_ZN7QString11reallocDataEjb@PLT
.L79:
	leaq	-26(%rbp), %rax
	movq	%rax, %rdi
	call	_ZN5QChar7unicodeEv@PLT
	movzwl	(%rax), %ebx
	movq	-24(%rbp), %rax
	movq	(%rax), %rax
	movq	%rax, %rdi
	call	_ZN15QTypedArrayDataItE4dataEv@PLT
	movq	%rax, %rcx
	movq	-24(%rbp), %rax
	movq	(%rax), %rax
	movl	4(%rax), %edx
	leal	1(%rdx), %esi
	movl	%esi, 4(%rax)
	movslq	%edx, %rax
	addq	%rax, %rax
	addq	%rcx, %rax
	movw	%bx, (%rax)
	movq	-24(%rbp), %rax
	movq	(%rax), %rax
	movq	%rax, %rdi
	call	_ZN15QTypedArrayDataItE4dataEv@PLT
	movq	-24(%rbp), %rdx
	movq	(%rdx), %rdx
	movl	4(%rdx), %edx
	movslq	%edx, %rdx
	addq	%rdx, %rdx
	addq	%rdx, %rax
	movw	$0, (%rax)
	movq	-24(%rbp), %rax
	movq	-8(%rbp), %rbx
	leave
	.cfi_def_cfa 7, 8
	ret
	.cfi_endproc
.LFE3486:
	.size	_ZN7QStringpLE5QChar, .-_ZN7QStringpLE5QChar
	.section	.text._ZN7QStringpLERKS_,"axG",@progbits,_ZN7QStringpLERKS_,comdat
	.align 2
	.weak	_ZN7QStringpLERKS_
	.type	_ZN7QStringpLERKS_, @function
_ZN7QStringpLERKS_:
.LFB3488:
	.cfi_startproc
	endbr64
	pushq	%rbp
	.cfi_def_cfa_offset 16
	.cfi_offset 6, -16
	movq	%rsp, %rbp
	.cfi_def_cfa_register 6
	subq	$16, %rsp
	movq	%rdi, -8(%rbp)
	movq	%rsi, -16(%rbp)
	movq	-16(%rbp), %rdx
	movq	-8(%rbp), %rax
	movq	%rdx, %rsi
	movq	%rax, %rdi
	call	_ZN7QString6appendERKS_@PLT
	leave
	.cfi_def_cfa 7, 8
	ret
	.cfi_endproc
.LFE3488:
	.size	_ZN7QStringpLERKS_, .-_ZN7QStringpLERKS_
	.section	.text._ZN7QString8fromUtf8EPKci,"axG",@progbits,_ZN7QString8fromUtf8EPKci,comdat
	.weak	_ZN7QString8fromUtf8EPKci
	.type	_ZN7QString8fromUtf8EPKci, @function
_ZN7QString8fromUtf8EPKci:
.LFB3501:
	.cfi_startproc
	endbr64
	pushq	%rbp
	.cfi_def_cfa_offset 16
	.cfi_offset 6, -16
	movq	%rsp, %rbp
	.cfi_def_cfa_register 6
	subq	$48, %rsp
	movq	%rdi, -24(%rbp)
	movq	%rsi, -32(%rbp)
	movl	%edx, -36(%rbp)
	movq	%fs:40, %rax
	movq	%rax, -8(%rbp)
	xorl	%eax, %eax
	cmpq	$0, -32(%rbp)
	je	.L84
	cmpl	$-1, -36(%rbp)
	jne	.L84
	movq	-32(%rbp), %rax
	movq	%rax, %rdi
	call	strlen@PLT
	jmp	.L85
.L84:
	movl	-36(%rbp), %eax
.L85:
	movq	-24(%rbp), %rcx
	movq	-32(%rbp), %rsi
	movl	%eax, %edx
	movq	%rcx, %rdi
	call	_ZN7QString15fromUtf8_helperEPKci@PLT
	movq	-8(%rbp), %rax
	subq	%fs:40, %rax
	je	.L87
	call	__stack_chk_fail@PLT
.L87:
	movq	-24(%rbp), %rax
	leave
	.cfi_def_cfa 7, 8
	ret
	.cfi_endproc
.LFE3501:
	.size	_ZN7QString8fromUtf8EPKci, .-_ZN7QString8fromUtf8EPKci
	.section	.text._ZneRK7QStringS1_,"axG",@progbits,_ZneRK7QStringS1_,comdat
	.weak	_ZneRK7QStringS1_
	.type	_ZneRK7QStringS1_, @function
_ZneRK7QStringS1_:
.LFB3514:
	.cfi_startproc
	endbr64
	pushq	%rbp
	.cfi_def_cfa_offset 16
	.cfi_offset 6, -16
	movq	%rsp, %rbp
	.cfi_def_cfa_register 6
	subq	$16, %rsp
	movq	%rdi, -8(%rbp)
	movq	%rsi, -16(%rbp)
	movq	-16(%rbp), %rdx
	movq	-8(%rbp), %rax
	movq	%rdx, %rsi
	movq	%rax, %rdi
	call	_ZeqRK7QStringS1_@PLT
	xorl	$1, %eax
	leave
	.cfi_def_cfa 7, 8
	ret
	.cfi_endproc
.LFE3514:
	.size	_ZneRK7QStringS1_, .-_ZneRK7QStringS1_
	.section	.text._ZN7QStringC2EPKc,"axG",@progbits,_ZN7QStringC5EPKc,comdat
	.align 2
	.weak	_ZN7QStringC2EPKc
	.type	_ZN7QStringC2EPKc, @function
_ZN7QStringC2EPKc:
.LFB3521:
	.cfi_startproc
	endbr64
	pushq	%rbp
	.cfi_def_cfa_offset 16
	.cfi_offset 6, -16
	movq	%rsp, %rbp
	.cfi_def_cfa_register 6
	subq	$16, %rsp
	movq	%rdi, -8(%rbp)
	movq	%rsi, -16(%rbp)
	cmpq	$0, -16(%rbp)
	je	.L91
	movq	-16(%rbp), %rax
	movq	%rax, %rdi
	call	strlen@PLT
	movl	%eax, %edx
	jmp	.L92
.L91:
	movl	$-1, %edx
.L92:
	movq	-16(%rbp), %rax
	movl	%edx, %esi
	movq	%rax, %rdi
	call	_ZN7QString16fromAscii_helperEPKci@PLT
	movq	-8(%rbp), %rdx
	movq	%rax, (%rdx)
	nop
	leave
	.cfi_def_cfa 7, 8
	ret
	.cfi_endproc
.LFE3521:
	.size	_ZN7QStringC2EPKc, .-_ZN7QStringC2EPKc
	.weak	_ZN7QStringC1EPKc
	.set	_ZN7QStringC1EPKc,_ZN7QStringC2EPKc
	.section	.text._ZN7QStringpLEPKc,"axG",@progbits,_ZN7QStringpLEPKc,comdat
	.align 2
	.weak	_ZN7QStringpLEPKc
	.type	_ZN7QStringpLEPKc, @function
_ZN7QStringpLEPKc:
.LFB3535:
	.cfi_startproc
	.cfi_personality 0x9b,DW.ref.__gxx_personality_v0
	.cfi_lsda 0x1b,.LLSDA3535
	endbr64
	pushq	%rbp
	.cfi_def_cfa_offset 16
	.cfi_offset 6, -16
	movq	%rsp, %rbp
	.cfi_def_cfa_register 6
	pushq	%rbx
	subq	$40, %rsp
	.cfi_offset 3, -24
	movq	%rdi, -40(%rbp)
	movq	%rsi, -48(%rbp)
	movq	%fs:40, %rax
	movq	%rax, -24(%rbp)
	xorl	%eax, %eax
	leaq	-32(%rbp), %rax
	movq	-48(%rbp), %rcx
	movl	$-1, %edx
	movq	%rcx, %rsi
	movq	%rax, %rdi
.LEHB0:
	call	_ZN7QString8fromUtf8EPKci@PLT
.LEHE0:
	leaq	-32(%rbp), %rdx
	movq	-40(%rbp), %rax
	movq	%rdx, %rsi
	movq	%rax, %rdi
.LEHB1:
	call	_ZN7QString6appendERKS_@PLT
.LEHE1:
	movq	%rax, %rbx
	nop
	leaq	-32(%rbp), %rax
	movq	%rax, %rdi
	call	_ZN7QStringD1Ev@PLT
	movq	%rbx, %rax
	movq	-24(%rbp), %rdx
	subq	%fs:40, %rdx
	je	.L97
	jmp	.L99
.L98:
	endbr64
	movq	%rax, %rbx
	leaq	-32(%rbp), %rax
	movq	%rax, %rdi
	call	_ZN7QStringD1Ev@PLT
	movq	%rbx, %rax
	movq	-24(%rbp), %rdx
	subq	%fs:40, %rdx
	je	.L96
	call	__stack_chk_fail@PLT
.L96:
	movq	%rax, %rdi
.LEHB2:
	call	_Unwind_Resume@PLT
.LEHE2:
.L99:
	call	__stack_chk_fail@PLT
.L97:
	movq	-8(%rbp), %rbx
	leave
	.cfi_def_cfa 7, 8
	ret
	.cfi_endproc
.LFE3535:
	.globl	__gxx_personality_v0
	.section	.gcc_except_table._ZN7QStringpLEPKc,"aG",@progbits,_ZN7QStringpLEPKc,comdat
.LLSDA3535:
	.byte	0xff
	.byte	0xff
	.byte	0x1
	.uleb128 .LLSDACSE3535-.LLSDACSB3535
.LLSDACSB3535:
	.uleb128 .LEHB0-.LFB3535
	.uleb128 .LEHE0-.LEHB0
	.uleb128 0
	.uleb128 0
	.uleb128 .LEHB1-.LFB3535
	.uleb128 .LEHE1-.LEHB1
	.uleb128 .L98-.LFB3535
	.uleb128 0
	.uleb128 .LEHB2-.LFB3535
	.uleb128 .LEHE2-.LEHB2
	.uleb128 0
	.uleb128 0
.LLSDACSE3535:
	.section	.text._ZN7QStringpLEPKc,"axG",@progbits,_ZN7QStringpLEPKc,comdat
	.size	_ZN7QStringpLEPKc, .-_ZN7QStringpLEPKc
	.section	.text._ZNK7QString6isNullEv,"axG",@progbits,_ZNK7QString6isNullEv,comdat
	.align 2
	.weak	_ZNK7QString6isNullEv
	.type	_ZNK7QString6isNullEv, @function
_ZNK7QString6isNullEv:
.LFB3553:
	.cfi_startproc
	endbr64
	pushq	%rbp
	.cfi_def_cfa_offset 16
	.cfi_offset 6, -16
	movq	%rsp, %rbp
	.cfi_def_cfa_register 6
	pushq	%rbx
	subq	$24, %rsp
	.cfi_offset 3, -24
	movq	%rdi, -24(%rbp)
	movq	-24(%rbp), %rax
	movq	(%rax), %rbx
	call	_ZN15QTypedArrayDataItE10sharedNullEv@PLT
	cmpq	%rax, %rbx
	sete	%al
	movq	-8(%rbp), %rbx
	leave
	.cfi_def_cfa 7, 8
	ret
	.cfi_endproc
.LFE3553:
	.size	_ZNK7QString6isNullEv, .-_ZNK7QString6isNullEv
	.section	.text._ZNK7QString6lengthEv,"axG",@progbits,_ZNK7QString6lengthEv,comdat
	.align 2
	.weak	_ZNK7QString6lengthEv
	.type	_ZNK7QString6lengthEv, @function
_ZNK7QString6lengthEv:
.LFB3564:
	.cfi_startproc
	endbr64
	pushq	%rbp
	.cfi_def_cfa_offset 16
	.cfi_offset 6, -16
	movq	%rsp, %rbp
	.cfi_def_cfa_register 6
	movq	%rdi, -8(%rbp)
	movq	-8(%rbp), %rax
	movq	(%rax), %rax
	movl	4(%rax), %eax
	popq	%rbp
	.cfi_def_cfa 7, 8
	ret
	.cfi_endproc
.LFE3564:
	.size	_ZNK7QString6lengthEv, .-_ZNK7QString6lengthEv
	.section	.text._ZNK7QString7isEmptyEv,"axG",@progbits,_ZNK7QString7isEmptyEv,comdat
	.align 2
	.weak	_ZNK7QString7isEmptyEv
	.type	_ZNK7QString7isEmptyEv, @function
_ZNK7QString7isEmptyEv:
.LFB3568:
	.cfi_startproc
	endbr64
	pushq	%rbp
	.cfi_def_cfa_offset 16
	.cfi_offset 6, -16
	movq	%rsp, %rbp
	.cfi_def_cfa_register 6
	movq	%rdi, -8(%rbp)
	movq	-8(%rbp), %rax
	movq	(%rax), %rax
	movl	4(%rax), %eax
	testl	%eax, %eax
	sete	%al
	popq	%rbp
	.cfi_def_cfa 7, 8
	ret
	.cfi_endproc
.LFE3568:
	.size	_ZNK7QString7isEmptyEv, .-_ZNK7QString7isEmptyEv
	.section	.text._ZNK7QString4dataEv,"axG",@progbits,_ZNK7QString4dataEv,comdat
	.align 2
	.weak	_ZNK7QString4dataEv
	.type	_ZNK7QString4dataEv, @function
_ZNK7QString4dataEv:
.LFB3570:
	.cfi_startproc
	endbr64
	pushq	%rbp
	.cfi_def_cfa_offset 16
	.cfi_offset 6, -16
	movq	%rsp, %rbp
	.cfi_def_cfa_register 6
	subq	$16, %rsp
	movq	%rdi, -8(%rbp)
	movq	-8(%rbp), %rax
	movq	(%rax), %rax
	movq	%rax, %rdi
	call	_ZN15QTypedArrayDataItE4dataEv@PLT
	leave
	.cfi_def_cfa 7, 8
	ret
	.cfi_endproc
.LFE3570:
	.size	_ZNK7QString4dataEv, .-_ZNK7QString4dataEv
	.section	.text._ZN7QString5clearEv,"axG",@progbits,_ZN7QString5clearEv,comdat
	.align 2
	.weak	_ZN7QString5clearEv
	.type	_ZN7QString5clearEv, @function
_ZN7QString5clearEv:
.LFB3575:
	.cfi_startproc
	endbr64
	pushq	%rbp
	.cfi_def_cfa_offset 16
	.cfi_offset 6, -16
	movq	%rsp, %rbp
	.cfi_def_cfa_register 6
	subq	$32, %rsp
	movq	%rdi, -24(%rbp)
	movq	%fs:40, %rax
	movq	%rax, -8(%rbp)
	xorl	%eax, %eax
	movq	-24(%rbp), %rax
	movq	%rax, %rdi
	call	_ZNK7QString6isNullEv@PLT
	xorl	$1, %eax
	testb	%al, %al
	je	.L111
	leaq	-16(%rbp), %rax
	movq	%rax, %rdi
	call	_ZN7QStringC1Ev@PLT
	leaq	-16(%rbp), %rdx
	movq	-24(%rbp), %rax
	movq	%rdx, %rsi
	movq	%rax, %rdi
	call	_ZN7QStringaSEOS_@PLT
	leaq	-16(%rbp), %rax
	movq	%rax, %rdi
	call	_ZN7QStringD1Ev@PLT
.L111:
	nop
	movq	-8(%rbp), %rax
	subq	%fs:40, %rax
	je	.L110
	call	__stack_chk_fail@PLT
.L110:
	leave
	.cfi_def_cfa 7, 8
	ret
	.cfi_endproc
.LFE3575:
	.size	_ZN7QString5clearEv, .-_ZN7QString5clearEv
	.section	.text._ZN7QStringC2ERKS_,"axG",@progbits,_ZN7QStringC5ERKS_,comdat
	.align 2
	.weak	_ZN7QStringC2ERKS_
	.type	_ZN7QStringC2ERKS_, @function
_ZN7QStringC2ERKS_:
.LFB3577:
	.cfi_startproc
	endbr64
	pushq	%rbp
	.cfi_def_cfa_offset 16
	.cfi_offset 6, -16
	movq	%rsp, %rbp
	.cfi_def_cfa_register 6
	subq	$16, %rsp
	movq	%rdi, -8(%rbp)
	movq	%rsi, -16(%rbp)
	movq	-16(%rbp), %rax
	movq	(%rax), %rdx
	movq	-8(%rbp), %rax
	movq	%rdx, (%rax)
	movq	-8(%rbp), %rax
	movq	(%rax), %rax
	movq	%rax, %rdi
	call	_ZN9QtPrivate8RefCount3refEv@PLT
	nop
	leave
	.cfi_def_cfa 7, 8
	ret
	.cfi_endproc
.LFE3577:
	.size	_ZN7QStringC2ERKS_, .-_ZN7QStringC2ERKS_
	.weak	_ZN7QStringC1ERKS_
	.set	_ZN7QStringC1ERKS_,_ZN7QStringC2ERKS_
	.section	.text._ZN7QStringC2Ev,"axG",@progbits,_ZN7QStringC5Ev,comdat
	.align 2
	.weak	_ZN7QStringC2Ev
	.type	_ZN7QStringC2Ev, @function
_ZN7QStringC2Ev:
.LFB3656:
	.cfi_startproc
	endbr64
	pushq	%rbp
	.cfi_def_cfa_offset 16
	.cfi_offset 6, -16
	movq	%rsp, %rbp
	.cfi_def_cfa_register 6
	subq	$16, %rsp
	movq	%rdi, -8(%rbp)
	call	_ZN15QTypedArrayDataItE10sharedNullEv@PLT
	movq	-8(%rbp), %rdx
	movq	%rax, (%rdx)
	nop
	leave
	.cfi_def_cfa 7, 8
	ret
	.cfi_endproc
.LFE3656:
	.size	_ZN7QStringC2Ev, .-_ZN7QStringC2Ev
	.weak	_ZN7QStringC1Ev
	.set	_ZN7QStringC1Ev,_ZN7QStringC2Ev
	.section	.text._ZN7QStringD2Ev,"axG",@progbits,_ZN7QStringD5Ev,comdat
	.align 2
	.weak	_ZN7QStringD2Ev
	.type	_ZN7QStringD2Ev, @function
_ZN7QStringD2Ev:
.LFB3659:
	.cfi_startproc
	endbr64
	pushq	%rbp
	.cfi_def_cfa_offset 16
	.cfi_offset 6, -16
	movq	%rsp, %rbp
	.cfi_def_cfa_register 6
	subq	$16, %rsp
	movq	%rdi, -8(%rbp)
	movq	-8(%rbp), %rax
	movq	(%rax), %rax
	movq	%rax, %rdi
	call	_ZN9QtPrivate8RefCount5derefEv@PLT
	xorl	$1, %eax
	testb	%al, %al
	je	.L116
	movq	-8(%rbp), %rax
	movq	(%rax), %rax
	movq	%rax, %rdi
	call	_ZN15QTypedArrayDataItE10deallocateEP10QArrayData@PLT
.L116:
	nop
	leave
	.cfi_def_cfa 7, 8
	ret
	.cfi_endproc
.LFE3659:
	.size	_ZN7QStringD2Ev, .-_ZN7QStringD2Ev
	.weak	_ZN7QStringD1Ev
	.set	_ZN7QStringD1Ev,_ZN7QStringD2Ev
	.section	.text._ZplRK7QStringS1_,"axG",@progbits,_ZplRK7QStringS1_,comdat
	.weak	_ZplRK7QStringS1_
	.type	_ZplRK7QStringS1_, @function
_ZplRK7QStringS1_:
.LFB3750:
	.cfi_startproc
	.cfi_personality 0x9b,DW.ref.__gxx_personality_v0
	.cfi_lsda 0x1b,.LLSDA3750
	endbr64
	pushq	%rbp
	.cfi_def_cfa_offset 16
	.cfi_offset 6, -16
	movq	%rsp, %rbp
	.cfi_def_cfa_register 6
	pushq	%rbx
	subq	$40, %rsp
	.cfi_offset 3, -24
	movq	%rdi, -24(%rbp)
	movq	%rsi, -32(%rbp)
	movq	%rdx, -40(%rbp)
	movq	-32(%rbp), %rdx
	movq	-24(%rbp), %rax
	movq	%rdx, %rsi
	movq	%rax, %rdi
	call	_ZN7QStringC1ERKS_@PLT
	movq	-40(%rbp), %rdx
	movq	-24(%rbp), %rax
	movq	%rdx, %rsi
	movq	%rax, %rdi
.LEHB3:
	call	_ZN7QStringpLERKS_@PLT
.LEHE3:
	jmp	.L121
.L120:
	endbr64
	movq	%rax, %rbx
	movq	-24(%rbp), %rax
	movq	%rax, %rdi
	call	_ZN7QStringD1Ev@PLT
	movq	%rbx, %rax
	movq	%rax, %rdi
.LEHB4:
	call	_Unwind_Resume@PLT
.LEHE4:
.L121:
	movq	-24(%rbp), %rax
	movq	-8(%rbp), %rbx
	leave
	.cfi_def_cfa 7, 8
	ret
	.cfi_endproc
.LFE3750:
	.section	.gcc_except_table._ZplRK7QStringS1_,"aG",@progbits,_ZplRK7QStringS1_,comdat
.LLSDA3750:
	.byte	0xff
	.byte	0xff
	.byte	0x1
	.uleb128 .LLSDACSE3750-.LLSDACSB3750
.LLSDACSB3750:
	.uleb128 .LEHB3-.LFB3750
	.uleb128 .LEHE3-.LEHB3
	.uleb128 .L120-.LFB3750
	.uleb128 0
	.uleb128 .LEHB4-.LFB3750
	.uleb128 .LEHE4-.LEHB4
	.uleb128 0
	.uleb128 0
.LLSDACSE3750:
	.section	.text._ZplRK7QStringS1_,"axG",@progbits,_ZplRK7QStringS1_,comdat
	.size	_ZplRK7QStringS1_, .-_ZplRK7QStringS1_
	.section	.text._ZplRK7QStringPKc,"axG",@progbits,_ZplRK7QStringPKc,comdat
	.weak	_ZplRK7QStringPKc
	.type	_ZplRK7QStringPKc, @function
_ZplRK7QStringPKc:
.LFB3753:
	.cfi_startproc
	.cfi_personality 0x9b,DW.ref.__gxx_personality_v0
	.cfi_lsda 0x1b,.LLSDA3753
	endbr64
	pushq	%rbp
	.cfi_def_cfa_offset 16
	.cfi_offset 6, -16
	movq	%rsp, %rbp
	.cfi_def_cfa_register 6
	pushq	%rbx
	subq	$56, %rsp
	.cfi_offset 3, -24
	movq	%rdi, -40(%rbp)
	movq	%rsi, -48(%rbp)
	movq	%rdx, -56(%rbp)
	movq	%fs:40, %rax
	movq	%rax, -24(%rbp)
	xorl	%eax, %eax
	movq	-48(%rbp), %rdx
	movq	-40(%rbp), %rax
	movq	%rdx, %rsi
	movq	%rax, %rdi
	call	_ZN7QStringC1ERKS_@PLT
	leaq	-32(%rbp), %rax
	movq	-56(%rbp), %rcx
	movl	$-1, %edx
	movq	%rcx, %rsi
	movq	%rax, %rdi
.LEHB5:
	call	_ZN7QString8fromUtf8EPKci@PLT
.LEHE5:
	leaq	-32(%rbp), %rdx
	movq	-40(%rbp), %rax
	movq	%rdx, %rsi
	movq	%rax, %rdi
.LEHB6:
	call	_ZN7QStringpLERKS_@PLT
.LEHE6:
	leaq	-32(%rbp), %rax
	movq	%rax, %rdi
	call	_ZN7QStringD1Ev@PLT
	nop
	movq	-24(%rbp), %rax
	subq	%fs:40, %rax
	je	.L127
	jmp	.L130
.L129:
	endbr64
	movq	%rax, %rbx
	leaq	-32(%rbp), %rax
	movq	%rax, %rdi
	call	_ZN7QStringD1Ev@PLT
	jmp	.L125
.L128:
	endbr64
	movq	%rax, %rbx
.L125:
	movq	-40(%rbp), %rax
	movq	%rax, %rdi
	call	_ZN7QStringD1Ev@PLT
	movq	%rbx, %rax
	movq	-24(%rbp), %rdx
	subq	%fs:40, %rdx
	je	.L126
	call	__stack_chk_fail@PLT
.L126:
	movq	%rax, %rdi
.LEHB7:
	call	_Unwind_Resume@PLT
.LEHE7:
.L130:
	call	__stack_chk_fail@PLT
.L127:
	movq	-40(%rbp), %rax
	movq	-8(%rbp), %rbx
	leave
	.cfi_def_cfa 7, 8
	ret
	.cfi_endproc
.LFE3753:
	.section	.gcc_except_table._ZplRK7QStringPKc,"aG",@progbits,_ZplRK7QStringPKc,comdat
.LLSDA3753:
	.byte	0xff
	.byte	0xff
	.byte	0x1
	.uleb128 .LLSDACSE3753-.LLSDACSB3753
.LLSDACSB3753:
	.uleb128 .LEHB5-.LFB3753
	.uleb128 .LEHE5-.LEHB5
	.uleb128 .L128-.LFB3753
	.uleb128 0
	.uleb128 .LEHB6-.LFB3753
	.uleb128 .LEHE6-.LEHB6
	.uleb128 .L129-.LFB3753
	.uleb128 0
	.uleb128 .LEHB7-.LFB3753
	.uleb128 .LEHE7-.LEHB7
	.uleb128 0
	.uleb128 0
.LLSDACSE3753:
	.section	.text._ZplRK7QStringPKc,"axG",@progbits,_ZplRK7QStringPKc,comdat
	.size	_ZplRK7QStringPKc, .-_ZplRK7QStringPKc
	.section	.text._ZplPKcRK7QString,"axG",@progbits,_ZplPKcRK7QString,comdat
	.weak	_ZplPKcRK7QString
	.type	_ZplPKcRK7QString, @function
_ZplPKcRK7QString:
.LFB3754:
	.cfi_startproc
	.cfi_personality 0x9b,DW.ref.__gxx_personality_v0
	.cfi_lsda 0x1b,.LLSDA3754
	endbr64
	pushq	%rbp
	.cfi_def_cfa_offset 16
	.cfi_offset 6, -16
	movq	%rsp, %rbp
	.cfi_def_cfa_register 6
	pushq	%rbx
	subq	$56, %rsp
	.cfi_offset 3, -24
	movq	%rdi, -40(%rbp)
	movq	%rsi, -48(%rbp)
	movq	%rdx, -56(%rbp)
	movq	%fs:40, %rax
	movq	%rax, -24(%rbp)
	xorl	%eax, %eax
	movq	-40(%rbp), %rax
	movq	-48(%rbp), %rcx
	movl	$-1, %edx
	movq	%rcx, %rsi
	movq	%rax, %rdi
.LEHB8:
	call	_ZN7QString8fromUtf8EPKci@PLT
.LEHE8:
	movq	-56(%rbp), %rdx
	movq	-40(%rbp), %rax
	movq	%rdx, %rsi
	movq	%rax, %rdi
.LEHB9:
	call	_ZN7QStringpLERKS_@PLT
.LEHE9:
	jmp	.L137
.L136:
	endbr64
	movq	%rax, %rbx
	movq	-40(%rbp), %rax
	movq	%rax, %rdi
	call	_ZN7QStringD1Ev@PLT
	movq	%rbx, %rax
	movq	-24(%rbp), %rdx
	subq	%fs:40, %rdx
	je	.L134
	call	__stack_chk_fail@PLT
.L134:
	movq	%rax, %rdi
.LEHB10:
	call	_Unwind_Resume@PLT
.LEHE10:
.L137:
	movq	-24(%rbp), %rax
	subq	%fs:40, %rax
	je	.L135
	call	__stack_chk_fail@PLT
.L135:
	movq	-40(%rbp), %rax
	movq	-8(%rbp), %rbx
	leave
	.cfi_def_cfa 7, 8
	ret
	.cfi_endproc
.LFE3754:
	.section	.gcc_except_table._ZplPKcRK7QString,"aG",@progbits,_ZplPKcRK7QString,comdat
.LLSDA3754:
	.byte	0xff
	.byte	0xff
	.byte	0x1
	.uleb128 .LLSDACSE3754-.LLSDACSB3754
.LLSDACSB3754:
	.uleb128 .LEHB8-.LFB3754
	.uleb128 .LEHE8-.LEHB8
	.uleb128 0
	.uleb128 0
	.uleb128 .LEHB9-.LFB3754
	.uleb128 .LEHE9-.LEHB9
	.uleb128 .L136-.LFB3754
	.uleb128 0
	.uleb128 .LEHB10-.LFB3754
	.uleb128 .LEHE10-.LEHB10
	.uleb128 0
	.uleb128 0
.LLSDACSE3754:
	.section	.text._ZplPKcRK7QString,"axG",@progbits,_ZplPKcRK7QString,comdat
	.size	_ZplPKcRK7QString, .-_ZplPKcRK7QString
	.section	.text._ZN9QtPrivate14QStringViewArgC2E11QStringView,"axG",@progbits,_ZN9QtPrivate14QStringViewArgC5E11QStringView,comdat
	.align 2
	.weak	_ZN9QtPrivate14QStringViewArgC2E11QStringView
	.type	_ZN9QtPrivate14QStringViewArgC2E11QStringView, @function
_ZN9QtPrivate14QStringViewArgC2E11QStringView:
.LFB3984:
	.cfi_startproc
	endbr64
	pushq	%rbp
	.cfi_def_cfa_offset 16
	.cfi_offset 6, -16
	movq	%rsp, %rbp
	.cfi_def_cfa_register 6
	movq	%rdi, -8(%rbp)
	movq	%rdx, %rcx
	movq	%rsi, %rax
	movq	%rdi, %rdx
	movq	%rcx, %rdx
	movq	%rax, -32(%rbp)
	movq	%rdx, -24(%rbp)
	movq	-8(%rbp), %rax
	movb	$2, (%rax)
	movq	-8(%rbp), %rcx
	movq	-32(%rbp), %rax
	movq	-24(%rbp), %rdx
	movq	%rax, 8(%rcx)
	movq	%rdx, 16(%rcx)
	nop
	popq	%rbp
	.cfi_def_cfa 7, 8
	ret
	.cfi_endproc
.LFE3984:
	.size	_ZN9QtPrivate14QStringViewArgC2E11QStringView, .-_ZN9QtPrivate14QStringViewArgC2E11QStringView
	.weak	_ZN9QtPrivate14QStringViewArgC1E11QStringView
	.set	_ZN9QtPrivate14QStringViewArgC1E11QStringView,_ZN9QtPrivate14QStringViewArgC2E11QStringView
	.section	.text._ZN9QtPrivate16qStringLikeToArgERK7QString,"axG",@progbits,_ZN9QtPrivate16qStringLikeToArgERK7QString,comdat
	.weak	_ZN9QtPrivate16qStringLikeToArgERK7QString
	.type	_ZN9QtPrivate16qStringLikeToArgERK7QString, @function
_ZN9QtPrivate16qStringLikeToArgERK7QString:
.LFB3990:
	.cfi_startproc
	endbr64
	pushq	%rbp
	.cfi_def_cfa_offset 16
	.cfi_offset 6, -16
	movq	%rsp, %rbp
	.cfi_def_cfa_register 6
	pushq	%rbx
	subq	$24, %rsp
	.cfi_offset 3, -24
	movq	%rdi, -24(%rbp)
	movq	%rsi, -32(%rbp)
	movq	-32(%rbp), %rax
	movq	%rax, %rdi
	call	_Z25qToStringViewIgnoringNullI7QStringLb1EE11QStringViewRKT_@PLT
	movq	%rax, %rcx
	movq	%rdx, %rbx
	movq	-24(%rbp), %rax
	movq	%rcx, %rsi
	movq	%rax, %rdi
	call	_ZN9QtPrivate14QStringViewArgC1E11QStringView@PLT
	movq	-24(%rbp), %rax
	movq	-8(%rbp), %rbx
	leave
	.cfi_def_cfa 7, 8
	ret
	.cfi_endproc
.LFE3990:
	.size	_ZN9QtPrivate16qStringLikeToArgERK7QString, .-_ZN9QtPrivate16qStringLikeToArgERK7QString
	.section	.text._ZN9QListData7disposeEv,"axG",@progbits,_ZN9QListData7disposeEv,comdat
	.align 2
	.weak	_ZN9QListData7disposeEv
	.type	_ZN9QListData7disposeEv, @function
_ZN9QListData7disposeEv:
.LFB5482:
	.cfi_startproc
	endbr64
	pushq	%rbp
	.cfi_def_cfa_offset 16
	.cfi_offset 6, -16
	movq	%rsp, %rbp
	.cfi_def_cfa_register 6
	subq	$16, %rsp
	movq	%rdi, -8(%rbp)
	movq	-8(%rbp), %rax
	movq	(%rax), %rax
	movq	%rax, %rdi
	call	_ZN9QListData7disposeEPNS_4DataE@PLT
	nop
	leave
	.cfi_def_cfa 7, 8
	ret
	.cfi_endproc
.LFE5482:
	.size	_ZN9QListData7disposeEv, .-_ZN9QListData7disposeEv
	.section	.text._ZNK9QListData4sizeEv,"axG",@progbits,_ZNK9QListData4sizeEv,comdat
	.align 2
	.weak	_ZNK9QListData4sizeEv
	.type	_ZNK9QListData4sizeEv, @function
_ZNK9QListData4sizeEv:
.LFB5483:
	.cfi_startproc
	endbr64
	pushq	%rbp
	.cfi_def_cfa_offset 16
	.cfi_offset 6, -16
	movq	%rsp, %rbp
	.cfi_def_cfa_register 6
	movq	%rdi, -8(%rbp)
	movq	-8(%rbp), %rax
	movq	(%rax), %rax
	movl	12(%rax), %edx
	movq	-8(%rbp), %rax
	movq	(%rax), %rax
	movl	8(%rax), %eax
	subl	%eax, %edx
	movl	%edx, %eax
	popq	%rbp
	.cfi_def_cfa 7, 8
	ret
	.cfi_endproc
.LFE5483:
	.size	_ZNK9QListData4sizeEv, .-_ZNK9QListData4sizeEv
	.section	.text._ZNK9QListData7isEmptyEv,"axG",@progbits,_ZNK9QListData7isEmptyEv,comdat
	.align 2
	.weak	_ZNK9QListData7isEmptyEv
	.type	_ZNK9QListData7isEmptyEv, @function
_ZNK9QListData7isEmptyEv:
.LFB5484:
	.cfi_startproc
	endbr64
	pushq	%rbp
	.cfi_def_cfa_offset 16
	.cfi_offset 6, -16
	movq	%rsp, %rbp
	.cfi_def_cfa_register 6
	movq	%rdi, -8(%rbp)
	movq	-8(%rbp), %rax
	movq	(%rax), %rax
	movl	12(%rax), %edx
	movq	-8(%rbp), %rax
	movq	(%rax), %rax
	movl	8(%rax), %eax
	cmpl	%eax, %edx
	sete	%al
	popq	%rbp
	.cfi_def_cfa 7, 8
	ret
	.cfi_endproc
.LFE5484:
	.size	_ZNK9QListData7isEmptyEv, .-_ZNK9QListData7isEmptyEv
	.section	.text._ZNK9QListData2atEi,"axG",@progbits,_ZNK9QListData2atEi,comdat
	.align 2
	.weak	_ZNK9QListData2atEi
	.type	_ZNK9QListData2atEi, @function
_ZNK9QListData2atEi:
.LFB5485:
	.cfi_startproc
	endbr64
	pushq	%rbp
	.cfi_def_cfa_offset 16
	.cfi_offset 6, -16
	movq	%rsp, %rbp
	.cfi_def_cfa_register 6
	movq	%rdi, -8(%rbp)
	movl	%esi, -12(%rbp)
	movq	-8(%rbp), %rax
	movq	(%rax), %rax
	leaq	16(%rax), %rcx
	movq	-8(%rbp), %rax
	movq	(%rax), %rax
	movl	8(%rax), %eax
	movslq	%eax, %rdx
	movl	-12(%rbp), %eax
	cltq
	addq	%rdx, %rax
	salq	$3, %rax
	addq	%rcx, %rax
	popq	%rbp
	.cfi_def_cfa 7, 8
	ret
	.cfi_endproc
.LFE5485:
	.size	_ZNK9QListData2atEi, .-_ZNK9QListData2atEi
	.section	.text._ZNK9QListData5beginEv,"axG",@progbits,_ZNK9QListData5beginEv,comdat
	.align 2
	.weak	_ZNK9QListData5beginEv
	.type	_ZNK9QListData5beginEv, @function
_ZNK9QListData5beginEv:
.LFB5486:
	.cfi_startproc
	endbr64
	pushq	%rbp
	.cfi_def_cfa_offset 16
	.cfi_offset 6, -16
	movq	%rsp, %rbp
	.cfi_def_cfa_register 6
	movq	%rdi, -8(%rbp)
	movq	-8(%rbp), %rax
	movq	(%rax), %rax
	leaq	16(%rax), %rdx
	movq	-8(%rbp), %rax
	movq	(%rax), %rax
	movl	8(%rax), %eax
	cltq
	salq	$3, %rax
	addq	%rdx, %rax
	popq	%rbp
	.cfi_def_cfa 7, 8
	ret
	.cfi_endproc
.LFE5486:
	.size	_ZNK9QListData5beginEv, .-_ZNK9QListData5beginEv
	.section	.text._ZNK9QListData3endEv,"axG",@progbits,_ZNK9QListData3endEv,comdat
	.align 2
	.weak	_ZNK9QListData3endEv
	.type	_ZNK9QListData3endEv, @function
_ZNK9QListData3endEv:
.LFB5487:
	.cfi_startproc
	endbr64
	pushq	%rbp
	.cfi_def_cfa_offset 16
	.cfi_offset 6, -16
	movq	%rsp, %rbp
	.cfi_def_cfa_register 6
	movq	%rdi, -8(%rbp)
	movq	-8(%rbp), %rax
	movq	(%rax), %rax
	leaq	16(%rax), %rdx
	movq	-8(%rbp), %rax
	movq	(%rax), %rax
	movl	12(%rax), %eax
	cltq
	salq	$3, %rax
	addq	%rdx, %rax
	popq	%rbp
	.cfi_def_cfa 7, 8
	ret
	.cfi_endproc
.LFE5487:
	.size	_ZNK9QListData3endEv, .-_ZNK9QListData3endEv
	.section	.text._ZN11QStringListC2Ev,"axG",@progbits,_ZN11QStringListC5Ev,comdat
	.align 2
	.weak	_ZN11QStringListC2Ev
	.type	_ZN11QStringListC2Ev, @function
_ZN11QStringListC2Ev:
.LFB5704:
	.cfi_startproc
	endbr64
	pushq	%rbp
	.cfi_def_cfa_offset 16
	.cfi_offset 6, -16
	movq	%rsp, %rbp
	.cfi_def_cfa_register 6
	subq	$16, %rsp
	movq	%rdi, -8(%rbp)
	movq	-8(%rbp), %rax
	movq	%rax, %rdi
	call	_ZN5QListI7QStringEC2Ev@PLT
	nop
	leave
	.cfi_def_cfa 7, 8
	ret
	.cfi_endproc
.LFE5704:
	.size	_ZN11QStringListC2Ev, .-_ZN11QStringListC2Ev
	.weak	_ZN11QStringListC1Ev
	.set	_ZN11QStringListC1Ev,_ZN11QStringListC2Ev
	.section	.text._ZN11QStringListD2Ev,"axG",@progbits,_ZN11QStringListD5Ev,comdat
	.align 2
	.weak	_ZN11QStringListD2Ev
	.type	_ZN11QStringListD2Ev, @function
_ZN11QStringListD2Ev:
.LFB5726:
	.cfi_startproc
	endbr64
	pushq	%rbp
	.cfi_def_cfa_offset 16
	.cfi_offset 6, -16
	movq	%rsp, %rbp
	.cfi_def_cfa_register 6
	subq	$16, %rsp
	movq	%rdi, -8(%rbp)
	movq	-8(%rbp), %rax
	movq	%rax, %rdi
	call	_ZN5QListI7QStringED2Ev@PLT
	nop
	leave
	.cfi_def_cfa 7, 8
	ret
	.cfi_endproc
.LFE5726:
	.size	_ZN11QStringListD2Ev, .-_ZN11QStringListD2Ev
	.weak	_ZN11QStringListD1Ev
	.set	_ZN11QStringListD1Ev,_ZN11QStringListD2Ev
	.section	.text._ZN11QStringListlsERK7QString,"axG",@progbits,_ZN11QStringListlsERK7QString,comdat
	.align 2
	.weak	_ZN11QStringListlsERK7QString
	.type	_ZN11QStringListlsERK7QString, @function
_ZN11QStringListlsERK7QString:
.LFB5731:
	.cfi_startproc
	endbr64
	pushq	%rbp
	.cfi_def_cfa_offset 16
	.cfi_offset 6, -16
	movq	%rsp, %rbp
	.cfi_def_cfa_register 6
	subq	$16, %rsp
	movq	%rdi, -8(%rbp)
	movq	%rsi, -16(%rbp)
	movq	-8(%rbp), %rax
	movq	-16(%rbp), %rdx
	movq	%rdx, %rsi
	movq	%rax, %rdi
	call	_ZN5QListI7QStringE6appendERKS0_@PLT
	movq	-8(%rbp), %rax
	leave
	.cfi_def_cfa 7, 8
	ret
	.cfi_endproc
.LFE5731:
	.size	_ZN11QStringListlsERK7QString, .-_ZN11QStringListlsERK7QString
	.section	.text._ZN9QtPrivate25AbstractConverterFunctionC2EPFbPKS0_PKvPvE,"axG",@progbits,_ZN9QtPrivate25AbstractConverterFunctionC5EPFbPKS0_PKvPvE,comdat
	.align 2
	.weak	_ZN9QtPrivate25AbstractConverterFunctionC2EPFbPKS0_PKvPvE
	.type	_ZN9QtPrivate25AbstractConverterFunctionC2EPFbPKS0_PKvPvE, @function
_ZN9QtPrivate25AbstractConverterFunctionC2EPFbPKS0_PKvPvE:
.LFB6268:
	.cfi_startproc
	endbr64
	pushq	%rbp
	.cfi_def_cfa_offset 16
	.cfi_offset 6, -16
	movq	%rsp, %rbp
	.cfi_def_cfa_register 6
	movq	%rdi, -8(%rbp)
	movq	%rsi, -16(%rbp)
	movq	-8(%rbp), %rax
	movq	-16(%rbp), %rdx
	movq	%rdx, (%rax)
	nop
	popq	%rbp
	.cfi_def_cfa 7, 8
	ret
	.cfi_endproc
.LFE6268:
	.size	_ZN9QtPrivate25AbstractConverterFunctionC2EPFbPKS0_PKvPvE, .-_ZN9QtPrivate25AbstractConverterFunctionC2EPFbPKS0_PKvPvE
	.weak	_ZN9QtPrivate25AbstractConverterFunctionC1EPFbPKS0_PKvPvE
	.set	_ZN9QtPrivate25AbstractConverterFunctionC1EPFbPKS0_PKvPvE,_ZN9QtPrivate25AbstractConverterFunctionC2EPFbPKS0_PKvPvE
	.section	.text._ZN17QtMetaTypePrivate11VariantDataC2EiPKvj,"axG",@progbits,_ZN17QtMetaTypePrivate11VariantDataC5EiPKvj,comdat
	.align 2
	.weak	_ZN17QtMetaTypePrivate11VariantDataC2EiPKvj
	.type	_ZN17QtMetaTypePrivate11VariantDataC2EiPKvj, @function
_ZN17QtMetaTypePrivate11VariantDataC2EiPKvj:
.LFB6305:
	.cfi_startproc
	endbr64
	pushq	%rbp
	.cfi_def_cfa_offset 16
	.cfi_offset 6, -16
	movq	%rsp, %rbp
	.cfi_def_cfa_register 6
	movq	%rdi, -8(%rbp)
	movl	%esi, -12(%rbp)
	movq	%rdx, -24(%rbp)
	movl	%ecx, -16(%rbp)
	movq	-8(%rbp), %rax
	movl	-12(%rbp), %edx
	movl	%edx, (%rax)
	movq	-8(%rbp), %rax
	movq	-24(%rbp), %rdx
	movq	%rdx, 8(%rax)
	movq	-8(%rbp), %rax
	movl	-16(%rbp), %edx
	movl	%edx, 16(%rax)
	nop
	popq	%rbp
	.cfi_def_cfa 7, 8
	ret
	.cfi_endproc
.LFE6305:
	.size	_ZN17QtMetaTypePrivate11VariantDataC2EiPKvj, .-_ZN17QtMetaTypePrivate11VariantDataC2EiPKvj
	.weak	_ZN17QtMetaTypePrivate11VariantDataC1EiPKvj
	.set	_ZN17QtMetaTypePrivate11VariantDataC1EiPKvj,_ZN17QtMetaTypePrivate11VariantDataC2EiPKvj
	.section	.text._ZN17QtMetaTypePrivate23QSequentialIterableImplC2Ev,"axG",@progbits,_ZN17QtMetaTypePrivate23QSequentialIterableImplC5Ev,comdat
	.align 2
	.weak	_ZN17QtMetaTypePrivate23QSequentialIterableImplC2Ev
	.type	_ZN17QtMetaTypePrivate23QSequentialIterableImplC2Ev, @function
_ZN17QtMetaTypePrivate23QSequentialIterableImplC2Ev:
.LFB6344:
	.cfi_startproc
	endbr64
	pushq	%rbp
	.cfi_def_cfa_offset 16
	.cfi_offset 6, -16
	movq	%rsp, %rbp
	.cfi_def_cfa_register 6
	movq	%rdi, -8(%rbp)
	movq	-8(%rbp), %rax
	movq	$0, (%rax)
	movq	-8(%rbp), %rax
	movq	$0, 8(%rax)
	movq	-8(%rbp), %rax
	movl	$0, 16(%rax)
	movq	-8(%rbp), %rax
	movl	$0, 20(%rax)
	movq	-8(%rbp), %rax
	movl	$16, 24(%rax)
	movq	-8(%rbp), %rax
	movq	$0, 32(%rax)
	movq	-8(%rbp), %rax
	movq	$0, 40(%rax)
	movq	-8(%rbp), %rax
	movq	$0, 48(%rax)
	movq	-8(%rbp), %rax
	movq	$0, 56(%rax)
	movq	-8(%rbp), %rax
	movq	$0, 64(%rax)
	movq	-8(%rbp), %rax
	movq	$0, 72(%rax)
	movq	-8(%rbp), %rax
	movq	$0, 80(%rax)
	movq	-8(%rbp), %rax
	movq	$0, 88(%rax)
	movq	-8(%rbp), %rax
	movq	$0, 96(%rax)
	nop
	popq	%rbp
	.cfi_def_cfa 7, 8
	ret
	.cfi_endproc
.LFE6344:
	.size	_ZN17QtMetaTypePrivate23QSequentialIterableImplC2Ev, .-_ZN17QtMetaTypePrivate23QSequentialIterableImplC2Ev
	.weak	_ZN17QtMetaTypePrivate23QSequentialIterableImplC1Ev
	.set	_ZN17QtMetaTypePrivate23QSequentialIterableImplC1Ev,_ZN17QtMetaTypePrivate23QSequentialIterableImplC2Ev
	.section	.text._ZN17QtMetaTypePrivate24QAssociativeIterableImplC2Ev,"axG",@progbits,_ZN17QtMetaTypePrivate24QAssociativeIterableImplC5Ev,comdat
	.align 2
	.weak	_ZN17QtMetaTypePrivate24QAssociativeIterableImplC2Ev
	.type	_ZN17QtMetaTypePrivate24QAssociativeIterableImplC2Ev, @function
_ZN17QtMetaTypePrivate24QAssociativeIterableImplC2Ev:
.LFB6374:
	.cfi_startproc
	endbr64
	pushq	%rbp
	.cfi_def_cfa_offset 16
	.cfi_offset 6, -16
	movq	%rsp, %rbp
	.cfi_def_cfa_register 6
	movq	%rdi, -8(%rbp)
	movq	-8(%rbp), %rax
	movq	$0, (%rax)
	movq	-8(%rbp), %rax
	movq	$0, 8(%rax)
	movq	-8(%rbp), %rax
	movl	$0, 16(%rax)
	movq	-8(%rbp), %rax
	movl	$0, 20(%rax)
	movq	-8(%rbp), %rax
	movl	$0, 24(%rax)
	movq	-8(%rbp), %rax
	movl	$0, 28(%rax)
	movq	-8(%rbp), %rax
	movq	$0, 32(%rax)
	movq	-8(%rbp), %rax
	movq	$0, 40(%rax)
	movq	-8(%rbp), %rax
	movq	$0, 48(%rax)
	movq	-8(%rbp), %rax
	movq	$0, 56(%rax)
	movq	-8(%rbp), %rax
	movq	$0, 64(%rax)
	movq	-8(%rbp), %rax
	movq	$0, 72(%rax)
	movq	-8(%rbp), %rax
	movq	$0, 80(%rax)
	movq	-8(%rbp), %rax
	movq	$0, 88(%rax)
	movq	-8(%rbp), %rax
	movq	$0, 96(%rax)
	movq	-8(%rbp), %rax
	movq	$0, 104(%rax)
	nop
	popq	%rbp
	.cfi_def_cfa 7, 8
	ret
	.cfi_endproc
.LFE6374:
	.size	_ZN17QtMetaTypePrivate24QAssociativeIterableImplC2Ev, .-_ZN17QtMetaTypePrivate24QAssociativeIterableImplC2Ev
	.weak	_ZN17QtMetaTypePrivate24QAssociativeIterableImplC1Ev
	.set	_ZN17QtMetaTypePrivate24QAssociativeIterableImplC1Ev,_ZN17QtMetaTypePrivate24QAssociativeIterableImplC2Ev
	.section	.text._ZN17QtMetaTypePrivate25QPairVariantInterfaceImplC2Ev,"axG",@progbits,_ZN17QtMetaTypePrivate25QPairVariantInterfaceImplC5Ev,comdat
	.align 2
	.weak	_ZN17QtMetaTypePrivate25QPairVariantInterfaceImplC2Ev
	.type	_ZN17QtMetaTypePrivate25QPairVariantInterfaceImplC2Ev, @function
_ZN17QtMetaTypePrivate25QPairVariantInterfaceImplC2Ev:
.LFB6395:
	.cfi_startproc
	endbr64
	pushq	%rbp
	.cfi_def_cfa_offset 16
	.cfi_offset 6, -16
	movq	%rsp, %rbp
	.cfi_def_cfa_register 6
	movq	%rdi, -8(%rbp)
	movq	-8(%rbp), %rax
	movq	$0, (%rax)
	movq	-8(%rbp), %rax
	movl	$0, 8(%rax)
	movq	-8(%rbp), %rax
	movl	$0, 12(%rax)
	movq	-8(%rbp), %rax
	movl	$0, 16(%rax)
	movq	-8(%rbp), %rax
	movl	$0, 20(%rax)
	movq	-8(%rbp), %rax
	movq	$0, 24(%rax)
	movq	-8(%rbp), %rax
	movq	$0, 32(%rax)
	nop
	popq	%rbp
	.cfi_def_cfa 7, 8
	ret
	.cfi_endproc
.LFE6395:
	.size	_ZN17QtMetaTypePrivate25QPairVariantInterfaceImplC2Ev, .-_ZN17QtMetaTypePrivate25QPairVariantInterfaceImplC2Ev
	.weak	_ZN17QtMetaTypePrivate25QPairVariantInterfaceImplC1Ev
	.set	_ZN17QtMetaTypePrivate25QPairVariantInterfaceImplC1Ev,_ZN17QtMetaTypePrivate25QPairVariantInterfaceImplC2Ev
	.section	.text._ZN12QMetaTypeId2IbE14qt_metatype_idEv,"axG",@progbits,_ZN12QMetaTypeId2IbE14qt_metatype_idEv,comdat
	.weak	_ZN12QMetaTypeId2IbE14qt_metatype_idEv
	.type	_ZN12QMetaTypeId2IbE14qt_metatype_idEv, @function
_ZN12QMetaTypeId2IbE14qt_metatype_idEv:
.LFB6472:
	.cfi_startproc
	endbr64
	pushq	%rbp
	.cfi_def_cfa_offset 16
	.cfi_offset 6, -16
	movq	%rsp, %rbp
	.cfi_def_cfa_register 6
	movl	$1, %eax
	popq	%rbp
	.cfi_def_cfa 7, 8
	ret
	.cfi_endproc
.LFE6472:
	.size	_ZN12QMetaTypeId2IbE14qt_metatype_idEv, .-_ZN12QMetaTypeId2IbE14qt_metatype_idEv
	.section	.text._ZN12QMetaTypeId2I7QStringE14qt_metatype_idEv,"axG",@progbits,_ZN12QMetaTypeId2I7QStringE14qt_metatype_idEv,comdat
	.weak	_ZN12QMetaTypeId2I7QStringE14qt_metatype_idEv
	.type	_ZN12QMetaTypeId2I7QStringE14qt_metatype_idEv, @function
_ZN12QMetaTypeId2I7QStringE14qt_metatype_idEv:
.LFB6490:
	.cfi_startproc
	endbr64
	pushq	%rbp
	.cfi_def_cfa_offset 16
	.cfi_offset 6, -16
	movq	%rsp, %rbp
	.cfi_def_cfa_register 6
	movl	$10, %eax
	popq	%rbp
	.cfi_def_cfa 7, 8
	ret
	.cfi_endproc
.LFE6490:
	.size	_ZN12QMetaTypeId2I7QStringE14qt_metatype_idEv, .-_ZN12QMetaTypeId2I7QStringE14qt_metatype_idEv
	.weak	_ZZN11QMetaTypeIdIN17QtMetaTypePrivate23QSequentialIterableImplEE14qt_metatype_idEvE11metatype_id
	.section	.bss._ZZN11QMetaTypeIdIN17QtMetaTypePrivate23QSequentialIterableImplEE14qt_metatype_idEvE11metatype_id,"awG",@nobits,_ZZN11QMetaTypeIdIN17QtMetaTypePrivate23QSequentialIterableImplEE14qt_metatype_idEvE11metatype_id,comdat
	.align 4
	.type	_ZZN11QMetaTypeIdIN17QtMetaTypePrivate23QSequentialIterableImplEE14qt_metatype_idEvE11metatype_id, @gnu_unique_object
	.size	_ZZN11QMetaTypeIdIN17QtMetaTypePrivate23QSequentialIterableImplEE14qt_metatype_idEvE11metatype_id, 4
_ZZN11QMetaTypeIdIN17QtMetaTypePrivate23QSequentialIterableImplEE14qt_metatype_idEvE11metatype_id:
	.zero	4
	.section	.text._ZN19QBasicAtomicIntegerIiEC2Ei,"axG",@progbits,_ZN19QBasicAtomicIntegerIiEC2Ei,comdat
	.align 2
	.weak	_ZN19QBasicAtomicIntegerIiEC2Ei
	.type	_ZN19QBasicAtomicIntegerIiEC2Ei, @function
_ZN19QBasicAtomicIntegerIiEC2Ei:
.LFB6553:
	.cfi_startproc
	endbr64
	pushq	%rbp
	.cfi_def_cfa_offset 16
	.cfi_offset 6, -16
	movq	%rsp, %rbp
	.cfi_def_cfa_register 6
	subq	$16, %rsp
	movq	%rdi, -8(%rbp)
	movl	%esi, -12(%rbp)
	movq	-8(%rbp), %rax
	movl	-12(%rbp), %edx
	movl	%edx, %esi
	movq	%rax, %rdi
	call	_ZNSt6atomicIiEC1Ei@PLT
	nop
	leave
	.cfi_def_cfa 7, 8
	ret
	.cfi_endproc
.LFE6553:
	.size	_ZN19QBasicAtomicIntegerIiEC2Ei, .-_ZN19QBasicAtomicIntegerIiEC2Ei
	.section	.text._ZNSt13__atomic_baseIiEC2Ei,"axG",@progbits,_ZNSt13__atomic_baseIiEC2Ei,comdat
	.align 2
	.weak	_ZNSt13__atomic_baseIiEC2Ei
	.type	_ZNSt13__atomic_baseIiEC2Ei, @function
_ZNSt13__atomic_baseIiEC2Ei:
.LFB6556:
	.cfi_startproc
	endbr64
	pushq	%rbp
	.cfi_def_cfa_offset 16
	.cfi_offset 6, -16
	movq	%rsp, %rbp
	.cfi_def_cfa_register 6
	movq	%rdi, -8(%rbp)
	movl	%esi, -12(%rbp)
	movq	-8(%rbp), %rax
	movl	-12(%rbp), %edx
	movl	%edx, (%rax)
	nop
	popq	%rbp
	.cfi_def_cfa 7, 8
	ret
	.cfi_endproc
.LFE6556:
	.size	_ZNSt13__atomic_baseIiEC2Ei, .-_ZNSt13__atomic_baseIiEC2Ei
	.section	.rodata
	.align 8
.LC1:
	.string	"QtMetaTypePrivate::QSequentialIterableImpl"
	.section	.text._ZN11QMetaTypeIdIN17QtMetaTypePrivate23QSequentialIterableImplEE14qt_metatype_idEv,"axG",@progbits,_ZN11QMetaTypeIdIN17QtMetaTypePrivate23QSequentialIterableImplEE14qt_metatype_idEv,comdat
	.weak	_ZN11QMetaTypeIdIN17QtMetaTypePrivate23QSequentialIterableImplEE14qt_metatype_idEv
	.type	_ZN11QMetaTypeIdIN17QtMetaTypePrivate23QSequentialIterableImplEE14qt_metatype_idEv, @function
_ZN11QMetaTypeIdIN17QtMetaTypePrivate23QSequentialIterableImplEE14qt_metatype_idEv:
.LFB6551:
	.cfi_startproc
	endbr64
	pushq	%rbp
	.cfi_def_cfa_offset 16
	.cfi_offset 6, -16
	movq	%rsp, %rbp
	.cfi_def_cfa_register 6
	subq	$16, %rsp
	movq	_ZZN11QMetaTypeIdIN17QtMetaTypePrivate23QSequentialIterableImplEE14qt_metatype_idEvE11metatype_id@GOTPCREL(%rip), %rax
	movq	%rax, %rdi
	call	_ZNK19QBasicAtomicIntegerIiE11loadAcquireEv@PLT
	movl	%eax, -8(%rbp)
	cmpl	$0, -8(%rbp)
	je	.L168
	movl	-8(%rbp), %eax
	jmp	.L169
.L168:
	movl	$1, %edx
	movq	$-1, %rsi
	leaq	.LC1(%rip), %rax
	movq	%rax, %rdi
	call	_Z17qRegisterMetaTypeIN17QtMetaTypePrivate23QSequentialIterableImplEEiPKcPT_N9QtPrivate21MetaTypeDefinedHelperIS4_Xaasr12QMetaTypeId2IS4_E7DefinedntsrS9_9IsBuiltInEE11DefinedTypeE@PLT
	movl	%eax, -4(%rbp)
	movl	-4(%rbp), %eax
	movl	%eax, %esi
	movq	_ZZN11QMetaTypeIdIN17QtMetaTypePrivate23QSequentialIterableImplEE14qt_metatype_idEvE11metatype_id@GOTPCREL(%rip), %rax
	movq	%rax, %rdi
	call	_ZN19QBasicAtomicIntegerIiE12storeReleaseEi@PLT
	movl	-4(%rbp), %eax
.L169:
	leave
	.cfi_def_cfa 7, 8
	ret
	.cfi_endproc
.LFE6551:
	.size	_ZN11QMetaTypeIdIN17QtMetaTypePrivate23QSequentialIterableImplEE14qt_metatype_idEv, .-_ZN11QMetaTypeIdIN17QtMetaTypePrivate23QSequentialIterableImplEE14qt_metatype_idEv
	.weak	_ZZN11QMetaTypeIdIN17QtMetaTypePrivate24QAssociativeIterableImplEE14qt_metatype_idEvE11metatype_id
	.section	.bss._ZZN11QMetaTypeIdIN17QtMetaTypePrivate24QAssociativeIterableImplEE14qt_metatype_idEvE11metatype_id,"awG",@nobits,_ZZN11QMetaTypeIdIN17QtMetaTypePrivate24QAssociativeIterableImplEE14qt_metatype_idEvE11metatype_id,comdat
	.align 4
	.type	_ZZN11QMetaTypeIdIN17QtMetaTypePrivate24QAssociativeIterableImplEE14qt_metatype_idEvE11metatype_id, @gnu_unique_object
	.size	_ZZN11QMetaTypeIdIN17QtMetaTypePrivate24QAssociativeIterableImplEE14qt_metatype_idEvE11metatype_id, 4
_ZZN11QMetaTypeIdIN17QtMetaTypePrivate24QAssociativeIterableImplEE14qt_metatype_idEvE11metatype_id:
	.zero	4
	.section	.rodata
	.align 8
.LC2:
	.string	"QtMetaTypePrivate::QAssociativeIterableImpl"
	.section	.text._ZN11QMetaTypeIdIN17QtMetaTypePrivate24QAssociativeIterableImplEE14qt_metatype_idEv,"axG",@progbits,_ZN11QMetaTypeIdIN17QtMetaTypePrivate24QAssociativeIterableImplEE14qt_metatype_idEv,comdat
	.weak	_ZN11QMetaTypeIdIN17QtMetaTypePrivate24QAssociativeIterableImplEE14qt_metatype_idEv
	.type	_ZN11QMetaTypeIdIN17QtMetaTypePrivate24QAssociativeIterableImplEE14qt_metatype_idEv, @function
_ZN11QMetaTypeIdIN17QtMetaTypePrivate24QAssociativeIterableImplEE14qt_metatype_idEv:
.LFB6558:
	.cfi_startproc
	endbr64
	pushq	%rbp
	.cfi_def_cfa_offset 16
	.cfi_offset 6, -16
	movq	%rsp, %rbp
	.cfi_def_cfa_register 6
	subq	$16, %rsp
	movq	_ZZN11QMetaTypeIdIN17QtMetaTypePrivate24QAssociativeIterableImplEE14qt_metatype_idEvE11metatype_id@GOTPCREL(%rip), %rax
	movq	%rax, %rdi
	call	_ZNK19QBasicAtomicIntegerIiE11loadAcquireEv@PLT
	movl	%eax, -8(%rbp)
	cmpl	$0, -8(%rbp)
	je	.L171
	movl	-8(%rbp), %eax
	jmp	.L172
.L171:
	movl	$1, %edx
	movq	$-1, %rsi
	leaq	.LC2(%rip), %rax
	movq	%rax, %rdi
	call	_Z17qRegisterMetaTypeIN17QtMetaTypePrivate24QAssociativeIterableImplEEiPKcPT_N9QtPrivate21MetaTypeDefinedHelperIS4_Xaasr12QMetaTypeId2IS4_E7DefinedntsrS9_9IsBuiltInEE11DefinedTypeE@PLT
	movl	%eax, -4(%rbp)
	movl	-4(%rbp), %eax
	movl	%eax, %esi
	movq	_ZZN11QMetaTypeIdIN17QtMetaTypePrivate24QAssociativeIterableImplEE14qt_metatype_idEvE11metatype_id@GOTPCREL(%rip), %rax
	movq	%rax, %rdi
	call	_ZN19QBasicAtomicIntegerIiE12storeReleaseEi@PLT
	movl	-4(%rbp), %eax
.L172:
	leave
	.cfi_def_cfa 7, 8
	ret
	.cfi_endproc
.LFE6558:
	.size	_ZN11QMetaTypeIdIN17QtMetaTypePrivate24QAssociativeIterableImplEE14qt_metatype_idEv, .-_ZN11QMetaTypeIdIN17QtMetaTypePrivate24QAssociativeIterableImplEE14qt_metatype_idEv
	.weak	_ZZN11QMetaTypeIdIN17QtMetaTypePrivate25QPairVariantInterfaceImplEE14qt_metatype_idEvE11metatype_id
	.section	.bss._ZZN11QMetaTypeIdIN17QtMetaTypePrivate25QPairVariantInterfaceImplEE14qt_metatype_idEvE11metatype_id,"awG",@nobits,_ZZN11QMetaTypeIdIN17QtMetaTypePrivate25QPairVariantInterfaceImplEE14qt_metatype_idEvE11metatype_id,comdat
	.align 4
	.type	_ZZN11QMetaTypeIdIN17QtMetaTypePrivate25QPairVariantInterfaceImplEE14qt_metatype_idEvE11metatype_id, @gnu_unique_object
	.size	_ZZN11QMetaTypeIdIN17QtMetaTypePrivate25QPairVariantInterfaceImplEE14qt_metatype_idEvE11metatype_id, 4
_ZZN11QMetaTypeIdIN17QtMetaTypePrivate25QPairVariantInterfaceImplEE14qt_metatype_idEvE11metatype_id:
	.zero	4
	.section	.rodata
	.align 8
.LC3:
	.string	"QtMetaTypePrivate::QPairVariantInterfaceImpl"
	.section	.text._ZN11QMetaTypeIdIN17QtMetaTypePrivate25QPairVariantInterfaceImplEE14qt_metatype_idEv,"axG",@progbits,_ZN11QMetaTypeIdIN17QtMetaTypePrivate25QPairVariantInterfaceImplEE14qt_metatype_idEv,comdat
	.weak	_ZN11QMetaTypeIdIN17QtMetaTypePrivate25QPairVariantInterfaceImplEE14qt_metatype_idEv
	.type	_ZN11QMetaTypeIdIN17QtMetaTypePrivate25QPairVariantInterfaceImplEE14qt_metatype_idEv, @function
_ZN11QMetaTypeIdIN17QtMetaTypePrivate25QPairVariantInterfaceImplEE14qt_metatype_idEv:
.LFB6559:
	.cfi_startproc
	endbr64
	pushq	%rbp
	.cfi_def_cfa_offset 16
	.cfi_offset 6, -16
	movq	%rsp, %rbp
	.cfi_def_cfa_register 6
	subq	$16, %rsp
	movq	_ZZN11QMetaTypeIdIN17QtMetaTypePrivate25QPairVariantInterfaceImplEE14qt_metatype_idEvE11metatype_id@GOTPCREL(%rip), %rax
	movq	%rax, %rdi
	call	_ZNK19QBasicAtomicIntegerIiE11loadAcquireEv@PLT
	movl	%eax, -8(%rbp)
	cmpl	$0, -8(%rbp)
	je	.L174
	movl	-8(%rbp), %eax
	jmp	.L175
.L174:
	movl	$1, %edx
	movq	$-1, %rsi
	leaq	.LC3(%rip), %rax
	movq	%rax, %rdi
	call	_Z17qRegisterMetaTypeIN17QtMetaTypePrivate25QPairVariantInterfaceImplEEiPKcPT_N9QtPrivate21MetaTypeDefinedHelperIS4_Xaasr12QMetaTypeId2IS4_E7DefinedntsrS9_9IsBuiltInEE11DefinedTypeE@PLT
	movl	%eax, -4(%rbp)
	movl	-4(%rbp), %eax
	movl	%eax, %esi
	movq	_ZZN11QMetaTypeIdIN17QtMetaTypePrivate25QPairVariantInterfaceImplEE14qt_metatype_idEvE11metatype_id@GOTPCREL(%rip), %rax
	movq	%rax, %rdi
	call	_ZN19QBasicAtomicIntegerIiE12storeReleaseEi@PLT
	movl	-4(%rbp), %eax
.L175:
	leave
	.cfi_def_cfa 7, 8
	ret
	.cfi_endproc
.LFE6559:
	.size	_ZN11QMetaTypeIdIN17QtMetaTypePrivate25QPairVariantInterfaceImplEE14qt_metatype_idEv, .-_ZN11QMetaTypeIdIN17QtMetaTypePrivate25QPairVariantInterfaceImplEE14qt_metatype_idEv
	.section	.text._Z11qMetaTypeIdIN17QtMetaTypePrivate25QPairVariantInterfaceImplEEiv,"axG",@progbits,_Z11qMetaTypeIdIN17QtMetaTypePrivate25QPairVariantInterfaceImplEEiv,comdat
	.weak	_Z11qMetaTypeIdIN17QtMetaTypePrivate25QPairVariantInterfaceImplEEiv
	.type	_Z11qMetaTypeIdIN17QtMetaTypePrivate25QPairVariantInterfaceImplEEiv, @function
_Z11qMetaTypeIdIN17QtMetaTypePrivate25QPairVariantInterfaceImplEEiv:
.LFB6561:
	.cfi_startproc
	endbr64
	pushq	%rbp
	.cfi_def_cfa_offset 16
	.cfi_offset 6, -16
	movq	%rsp, %rbp
	.cfi_def_cfa_register 6
	call	_ZN12QMetaTypeId2IN17QtMetaTypePrivate25QPairVariantInterfaceImplEE14qt_metatype_idEv@PLT
	popq	%rbp
	.cfi_def_cfa 7, 8
	ret
	.cfi_endproc
.LFE6561:
	.size	_Z11qMetaTypeIdIN17QtMetaTypePrivate25QPairVariantInterfaceImplEEiv, .-_Z11qMetaTypeIdIN17QtMetaTypePrivate25QPairVariantInterfaceImplEEiv
	.section	.text._ZN12QMetaTypeId2IN17QtMetaTypePrivate25QPairVariantInterfaceImplEE14qt_metatype_idEv,"axG",@progbits,_ZN12QMetaTypeId2IN17QtMetaTypePrivate25QPairVariantInterfaceImplEE14qt_metatype_idEv,comdat
	.weak	_ZN12QMetaTypeId2IN17QtMetaTypePrivate25QPairVariantInterfaceImplEE14qt_metatype_idEv
	.type	_ZN12QMetaTypeId2IN17QtMetaTypePrivate25QPairVariantInterfaceImplEE14qt_metatype_idEv, @function
_ZN12QMetaTypeId2IN17QtMetaTypePrivate25QPairVariantInterfaceImplEE14qt_metatype_idEv:
.LFB6562:
	.cfi_startproc
	endbr64
	pushq	%rbp
	.cfi_def_cfa_offset 16
	.cfi_offset 6, -16
	movq	%rsp, %rbp
	.cfi_def_cfa_register 6
	call	_ZN11QMetaTypeIdIN17QtMetaTypePrivate25QPairVariantInterfaceImplEE14qt_metatype_idEv@PLT
	popq	%rbp
	.cfi_def_cfa 7, 8
	ret
	.cfi_endproc
.LFE6562:
	.size	_ZN12QMetaTypeId2IN17QtMetaTypePrivate25QPairVariantInterfaceImplEE14qt_metatype_idEv, .-_ZN12QMetaTypeId2IN17QtMetaTypePrivate25QPairVariantInterfaceImplEE14qt_metatype_idEv
	.section	.text._Z11qMetaTypeIdIN17QtMetaTypePrivate23QSequentialIterableImplEEiv,"axG",@progbits,_Z11qMetaTypeIdIN17QtMetaTypePrivate23QSequentialIterableImplEEiv,comdat
	.weak	_Z11qMetaTypeIdIN17QtMetaTypePrivate23QSequentialIterableImplEEiv
	.type	_Z11qMetaTypeIdIN17QtMetaTypePrivate23QSequentialIterableImplEEiv, @function
_Z11qMetaTypeIdIN17QtMetaTypePrivate23QSequentialIterableImplEEiv:
.LFB6564:
	.cfi_startproc
	endbr64
	pushq	%rbp
	.cfi_def_cfa_offset 16
	.cfi_offset 6, -16
	movq	%rsp, %rbp
	.cfi_def_cfa_register 6
	call	_ZN12QMetaTypeId2IN17QtMetaTypePrivate23QSequentialIterableImplEE14qt_metatype_idEv@PLT
	popq	%rbp
	.cfi_def_cfa 7, 8
	ret
	.cfi_endproc
.LFE6564:
	.size	_Z11qMetaTypeIdIN17QtMetaTypePrivate23QSequentialIterableImplEEiv, .-_Z11qMetaTypeIdIN17QtMetaTypePrivate23QSequentialIterableImplEEiv
	.section	.text._ZN12QMetaTypeId2IN17QtMetaTypePrivate23QSequentialIterableImplEE14qt_metatype_idEv,"axG",@progbits,_ZN12QMetaTypeId2IN17QtMetaTypePrivate23QSequentialIterableImplEE14qt_metatype_idEv,comdat
	.weak	_ZN12QMetaTypeId2IN17QtMetaTypePrivate23QSequentialIterableImplEE14qt_metatype_idEv
	.type	_ZN12QMetaTypeId2IN17QtMetaTypePrivate23QSequentialIterableImplEE14qt_metatype_idEv, @function
_ZN12QMetaTypeId2IN17QtMetaTypePrivate23QSequentialIterableImplEE14qt_metatype_idEv:
.LFB6565:
	.cfi_startproc
	endbr64
	pushq	%rbp
	.cfi_def_cfa_offset 16
	.cfi_offset 6, -16
	movq	%rsp, %rbp
	.cfi_def_cfa_register 6
	call	_ZN11QMetaTypeIdIN17QtMetaTypePrivate23QSequentialIterableImplEE14qt_metatype_idEv@PLT
	popq	%rbp
	.cfi_def_cfa 7, 8
	ret
	.cfi_endproc
.LFE6565:
	.size	_ZN12QMetaTypeId2IN17QtMetaTypePrivate23QSequentialIterableImplEE14qt_metatype_idEv, .-_ZN12QMetaTypeId2IN17QtMetaTypePrivate23QSequentialIterableImplEE14qt_metatype_idEv
	.section	.text._Z11qMetaTypeIdIN17QtMetaTypePrivate24QAssociativeIterableImplEEiv,"axG",@progbits,_Z11qMetaTypeIdIN17QtMetaTypePrivate24QAssociativeIterableImplEEiv,comdat
	.weak	_Z11qMetaTypeIdIN17QtMetaTypePrivate24QAssociativeIterableImplEEiv
	.type	_Z11qMetaTypeIdIN17QtMetaTypePrivate24QAssociativeIterableImplEEiv, @function
_Z11qMetaTypeIdIN17QtMetaTypePrivate24QAssociativeIterableImplEEiv:
.LFB6567:
	.cfi_startproc
	endbr64
	pushq	%rbp
	.cfi_def_cfa_offset 16
	.cfi_offset 6, -16
	movq	%rsp, %rbp
	.cfi_def_cfa_register 6
	call	_ZN12QMetaTypeId2IN17QtMetaTypePrivate24QAssociativeIterableImplEE14qt_metatype_idEv@PLT
	popq	%rbp
	.cfi_def_cfa 7, 8
	ret
	.cfi_endproc
.LFE6567:
	.size	_Z11qMetaTypeIdIN17QtMetaTypePrivate24QAssociativeIterableImplEEiv, .-_Z11qMetaTypeIdIN17QtMetaTypePrivate24QAssociativeIterableImplEEiv
	.section	.text._ZN12QMetaTypeId2IN17QtMetaTypePrivate24QAssociativeIterableImplEE14qt_metatype_idEv,"axG",@progbits,_ZN12QMetaTypeId2IN17QtMetaTypePrivate24QAssociativeIterableImplEE14qt_metatype_idEv,comdat
	.weak	_ZN12QMetaTypeId2IN17QtMetaTypePrivate24QAssociativeIterableImplEE14qt_metatype_idEv
	.type	_ZN12QMetaTypeId2IN17QtMetaTypePrivate24QAssociativeIterableImplEE14qt_metatype_idEv, @function
_ZN12QMetaTypeId2IN17QtMetaTypePrivate24QAssociativeIterableImplEE14qt_metatype_idEv:
.LFB6568:
	.cfi_startproc
	endbr64
	pushq	%rbp
	.cfi_def_cfa_offset 16
	.cfi_offset 6, -16
	movq	%rsp, %rbp
	.cfi_def_cfa_register 6
	call	_ZN11QMetaTypeIdIN17QtMetaTypePrivate24QAssociativeIterableImplEE14qt_metatype_idEv@PLT
	popq	%rbp
	.cfi_def_cfa 7, 8
	ret
	.cfi_endproc
.LFE6568:
	.size	_ZN12QMetaTypeId2IN17QtMetaTypePrivate24QAssociativeIterableImplEE14qt_metatype_idEv, .-_ZN12QMetaTypeId2IN17QtMetaTypePrivate24QAssociativeIterableImplEE14qt_metatype_idEv
	.section	.text._ZN9QtPrivate15ConnectionTypesINS_4ListIJEEELb1EE5typesEv,"axG",@progbits,_ZN9QtPrivate15ConnectionTypesINS_4ListIJEEELb1EE5typesEv,comdat
	.weak	_ZN9QtPrivate15ConnectionTypesINS_4ListIJEEELb1EE5typesEv
	.type	_ZN9QtPrivate15ConnectionTypesINS_4ListIJEEELb1EE5typesEv, @function
_ZN9QtPrivate15ConnectionTypesINS_4ListIJEEELb1EE5typesEv:
.LFB6570:
	.cfi_startproc
	endbr64
	pushq	%rbp
	.cfi_def_cfa_offset 16
	.cfi_offset 6, -16
	movq	%rsp, %rbp
	.cfi_def_cfa_register 6
	movl	$0, %eax
	popq	%rbp
	.cfi_def_cfa 7, 8
	ret
	.cfi_endproc
.LFE6570:
	.size	_ZN9QtPrivate15ConnectionTypesINS_4ListIJEEELb1EE5typesEv, .-_ZN9QtPrivate15ConnectionTypesINS_4ListIJEEELb1EE5typesEv
	.section	.text._ZNK5QSize7isValidEv,"axG",@progbits,_ZNK5QSize7isValidEv,comdat
	.align 2
	.weak	_ZNK5QSize7isValidEv
	.type	_ZNK5QSize7isValidEv, @function
_ZNK5QSize7isValidEv:
.LFB7005:
	.cfi_startproc
	endbr64
	pushq	%rbp
	.cfi_def_cfa_offset 16
	.cfi_offset 6, -16
	movq	%rsp, %rbp
	.cfi_def_cfa_register 6
	movq	%rdi, -8(%rbp)
	movq	-8(%rbp), %rax
	movl	(%rax), %eax
	testl	%eax, %eax
	js	.L191
	movq	-8(%rbp), %rax
	movl	4(%rax), %eax
	testl	%eax, %eax
	js	.L191
	movl	$1, %eax
	jmp	.L192
.L191:
	movl	$0, %eax
.L192:
	popq	%rbp
	.cfi_def_cfa 7, 8
	ret
	.cfi_endproc
.LFE7005:
	.size	_ZNK5QSize7isValidEv, .-_ZNK5QSize7isValidEv
	.section	.text._ZNK5QSize6heightEv,"axG",@progbits,_ZNK5QSize6heightEv,comdat
	.align 2
	.weak	_ZNK5QSize6heightEv
	.type	_ZNK5QSize6heightEv, @function
_ZNK5QSize6heightEv:
.LFB7007:
	.cfi_startproc
	endbr64
	pushq	%rbp
	.cfi_def_cfa_offset 16
	.cfi_offset 6, -16
	movq	%rsp, %rbp
	.cfi_def_cfa_register 6
	movq	%rdi, -8(%rbp)
	movq	-8(%rbp), %rax
	movl	4(%rax), %eax
	popq	%rbp
	.cfi_def_cfa 7, 8
	ret
	.cfi_endproc
.LFE7007:
	.size	_ZNK5QSize6heightEv, .-_ZNK5QSize6heightEv
	.section	.text._ZN6QPointC2Eii,"axG",@progbits,_ZN6QPointC5Eii,comdat
	.align 2
	.weak	_ZN6QPointC2Eii
	.type	_ZN6QPointC2Eii, @function
_ZN6QPointC2Eii:
.LFB7081:
	.cfi_startproc
	endbr64
	pushq	%rbp
	.cfi_def_cfa_offset 16
	.cfi_offset 6, -16
	movq	%rsp, %rbp
	.cfi_def_cfa_register 6
	movq	%rdi, -8(%rbp)
	movl	%esi, -12(%rbp)
	movl	%edx, -16(%rbp)
	movq	-8(%rbp), %rax
	movl	-12(%rbp), %edx
	movl	%edx, (%rax)
	movq	-8(%rbp), %rax
	movl	-16(%rbp), %edx
	movl	%edx, 4(%rax)
	nop
	popq	%rbp
	.cfi_def_cfa 7, 8
	ret
	.cfi_endproc
.LFE7081:
	.size	_ZN6QPointC2Eii, .-_ZN6QPointC2Eii
	.weak	_ZN6QPointC1Eii
	.set	_ZN6QPointC1Eii,_ZN6QPointC2Eii
	.section	.text._ZNK6QPoint1xEv,"axG",@progbits,_ZNK6QPoint1xEv,comdat
	.align 2
	.weak	_ZNK6QPoint1xEv
	.type	_ZNK6QPoint1xEv, @function
_ZNK6QPoint1xEv:
.LFB7084:
	.cfi_startproc
	endbr64
	pushq	%rbp
	.cfi_def_cfa_offset 16
	.cfi_offset 6, -16
	movq	%rsp, %rbp
	.cfi_def_cfa_register 6
	movq	%rdi, -8(%rbp)
	movq	-8(%rbp), %rax
	movl	(%rax), %eax
	popq	%rbp
	.cfi_def_cfa 7, 8
	ret
	.cfi_endproc
.LFE7084:
	.size	_ZNK6QPoint1xEv, .-_ZNK6QPoint1xEv
	.section	.text._ZNK6QPoint1yEv,"axG",@progbits,_ZNK6QPoint1yEv,comdat
	.align 2
	.weak	_ZNK6QPoint1yEv
	.type	_ZNK6QPoint1yEv, @function
_ZNK6QPoint1yEv:
.LFB7085:
	.cfi_startproc
	endbr64
	pushq	%rbp
	.cfi_def_cfa_offset 16
	.cfi_offset 6, -16
	movq	%rsp, %rbp
	.cfi_def_cfa_register 6
	movq	%rdi, -8(%rbp)
	movq	-8(%rbp), %rax
	movl	4(%rax), %eax
	popq	%rbp
	.cfi_def_cfa 7, 8
	ret
	.cfi_endproc
.LFE7085:
	.size	_ZNK6QPoint1yEv, .-_ZNK6QPoint1yEv
	.section	.rodata
	.align 4
	.type	_ZL8RGB_MASK, @object
	.size	_ZL8RGB_MASK, 4
_ZL8RGB_MASK:
	.long	16777215
	.section	.text._ZN6QColorC2EPKc,"axG",@progbits,_ZN6QColorC5EPKc,comdat
	.align 2
	.weak	_ZN6QColorC2EPKc
	.type	_ZN6QColorC2EPKc, @function
_ZN6QColorC2EPKc:
.LFB7393:
	.cfi_startproc
	endbr64
	pushq	%rbp
	.cfi_def_cfa_offset 16
	.cfi_offset 6, -16
	movq	%rsp, %rbp
	.cfi_def_cfa_register 6
	subq	$48, %rsp
	movq	%rdi, -40(%rbp)
	movq	%rsi, -48(%rbp)
	movq	%fs:40, %rax
	movq	%rax, -8(%rbp)
	xorl	%eax, %eax
	movq	-48(%rbp), %rdx
	leaq	-32(%rbp), %rax
	movq	%rdx, %rsi
	movq	%rax, %rdi
	call	_ZN13QLatin1StringC1EPKc@PLT
	movl	-32(%rbp), %ecx
	movq	-24(%rbp), %rdx
	movq	-40(%rbp), %rax
	movl	%ecx, %esi
	movq	%rax, %rdi
	call	_ZN6QColorC1E13QLatin1String@PLT
	nop
	movq	-8(%rbp), %rax
	subq	%fs:40, %rax
	je	.L202
	call	__stack_chk_fail@PLT
.L202:
	leave
	.cfi_def_cfa 7, 8
	ret
	.cfi_endproc
.LFE7393:
	.size	_ZN6QColorC2EPKc, .-_ZN6QColorC2EPKc
	.weak	_ZN6QColorC1EPKc
	.set	_ZN6QColorC1EPKc,_ZN6QColorC2EPKc
	.section	.text._ZN6QColor2CTC2Ev,"axG",@progbits,_ZN6QColor2CTC5Ev,comdat
	.align 2
	.weak	_ZN6QColor2CTC2Ev
	.type	_ZN6QColor2CTC2Ev, @function
_ZN6QColor2CTC2Ev:
.LFB7405:
	.cfi_startproc
	endbr64
	pushq	%rbp
	.cfi_def_cfa_offset 16
	.cfi_offset 6, -16
	movq	%rsp, %rbp
	.cfi_def_cfa_register 6
	movq	%rdi, -8(%rbp)
	nop
	popq	%rbp
	.cfi_def_cfa 7, 8
	ret
	.cfi_endproc
.LFE7405:
	.size	_ZN6QColor2CTC2Ev, .-_ZN6QColor2CTC2Ev
	.weak	_ZN6QColor2CTC1Ev
	.set	_ZN6QColor2CTC1Ev,_ZN6QColor2CTC2Ev
	.section	.text._ZN6QColorC2E13QLatin1String,"axG",@progbits,_ZN6QColorC5E13QLatin1String,comdat
	.align 2
	.weak	_ZN6QColorC2E13QLatin1String
	.type	_ZN6QColorC2E13QLatin1String, @function
_ZN6QColorC2E13QLatin1String:
.LFB7418:
	.cfi_startproc
	endbr64
	pushq	%rbp
	.cfi_def_cfa_offset 16
	.cfi_offset 6, -16
	movq	%rsp, %rbp
	.cfi_def_cfa_register 6
	subq	$32, %rsp
	movq	%rdi, -8(%rbp)
	movq	%rdx, %rcx
	movq	%rsi, %rax
	movq	%rdi, %rdx
	movq	%rcx, %rdx
	movq	%rax, -32(%rbp)
	movq	%rdx, -24(%rbp)
	movq	-8(%rbp), %rax
	addq	$4, %rax
	movq	%rax, %rdi
	call	_ZN6QColor2CTC1Ev@PLT
	movl	-32(%rbp), %ecx
	movq	-24(%rbp), %rdx
	movq	-8(%rbp), %rax
	movl	%ecx, %esi
	movq	%rax, %rdi
	call	_ZN6QColor13setNamedColorE13QLatin1String@PLT
	nop
	leave
	.cfi_def_cfa 7, 8
	ret
	.cfi_endproc
.LFE7418:
	.size	_ZN6QColorC2E13QLatin1String, .-_ZN6QColorC2E13QLatin1String
	.weak	_ZN6QColorC1E13QLatin1String
	.set	_ZN6QColorC1E13QLatin1String,_ZN6QColorC2E13QLatin1String
	.section	.rodata
	.align 16
	.type	_ZN15QColorConstantsL6Color0E, @object
	.size	_ZN15QColorConstantsL6Color0E, 16
_ZN15QColorConstantsL6Color0E:
	.long	1
	.value	-1
	.value	0
	.value	0
	.value	0
	.value	0
	.zero	2
	.align 16
	.type	_ZN15QColorConstantsL6Color1E, @object
	.size	_ZN15QColorConstantsL6Color1E, 16
_ZN15QColorConstantsL6Color1E:
	.long	1
	.value	-1
	.value	-1
	.value	-1
	.value	-1
	.value	0
	.zero	2
	.align 16
	.type	_ZN15QColorConstantsL5BlackE, @object
	.size	_ZN15QColorConstantsL5BlackE, 16
_ZN15QColorConstantsL5BlackE:
	.long	1
	.value	-1
	.value	0
	.value	0
	.value	0
	.value	0
	.zero	2
	.align 16
	.type	_ZN15QColorConstantsL5WhiteE, @object
	.size	_ZN15QColorConstantsL5WhiteE, 16
_ZN15QColorConstantsL5WhiteE:
	.long	1
	.value	-1
	.value	-1
	.value	-1
	.value	-1
	.value	0
	.zero	2
	.align 16
	.type	_ZN15QColorConstantsL8DarkGrayE, @object
	.size	_ZN15QColorConstantsL8DarkGrayE, 16
_ZN15QColorConstantsL8DarkGrayE:
	.long	1
	.value	-1
	.value	-32640
	.value	-32640
	.value	-32640
	.value	0
	.zero	2
	.align 16
	.type	_ZN15QColorConstantsL4GrayE, @object
	.size	_ZN15QColorConstantsL4GrayE, 16
_ZN15QColorConstantsL4GrayE:
	.long	1
	.value	-1
	.value	-24416
	.value	-24416
	.value	-23388
	.value	0
	.zero	2
	.align 16
	.type	_ZN15QColorConstantsL9LightGrayE, @object
	.size	_ZN15QColorConstantsL9LightGrayE, 16
_ZN15QColorConstantsL9LightGrayE:
	.long	1
	.value	-1
	.value	-16192
	.value	-16192
	.value	-16192
	.value	0
	.zero	2
	.align 16
	.type	_ZN15QColorConstantsL3RedE, @object
	.size	_ZN15QColorConstantsL3RedE, 16
_ZN15QColorConstantsL3RedE:
	.long	1
	.value	-1
	.value	-1
	.value	0
	.value	0
	.value	0
	.zero	2
	.align 16
	.type	_ZN15QColorConstantsL5GreenE, @object
	.size	_ZN15QColorConstantsL5GreenE, 16
_ZN15QColorConstantsL5GreenE:
	.long	1
	.value	-1
	.value	0
	.value	-1
	.value	0
	.value	0
	.zero	2
	.align 16
	.type	_ZN15QColorConstantsL4BlueE, @object
	.size	_ZN15QColorConstantsL4BlueE, 16
_ZN15QColorConstantsL4BlueE:
	.long	1
	.value	-1
	.value	0
	.value	0
	.value	-1
	.value	0
	.zero	2
	.align 16
	.type	_ZN15QColorConstantsL4CyanE, @object
	.size	_ZN15QColorConstantsL4CyanE, 16
_ZN15QColorConstantsL4CyanE:
	.long	1
	.value	-1
	.value	0
	.value	-1
	.value	-1
	.value	0
	.zero	2
	.align 16
	.type	_ZN15QColorConstantsL7MagentaE, @object
	.size	_ZN15QColorConstantsL7MagentaE, 16
_ZN15QColorConstantsL7MagentaE:
	.long	1
	.value	-1
	.value	-1
	.value	0
	.value	-1
	.value	0
	.zero	2
	.align 16
	.type	_ZN15QColorConstantsL6YellowE, @object
	.size	_ZN15QColorConstantsL6YellowE, 16
_ZN15QColorConstantsL6YellowE:
	.long	1
	.value	-1
	.value	-1
	.value	-1
	.value	0
	.value	0
	.zero	2
	.align 16
	.type	_ZN15QColorConstantsL7DarkRedE, @object
	.size	_ZN15QColorConstantsL7DarkRedE, 16
_ZN15QColorConstantsL7DarkRedE:
	.long	1
	.value	-1
	.value	-32640
	.value	0
	.value	0
	.value	0
	.zero	2
	.align 16
	.type	_ZN15QColorConstantsL9DarkGreenE, @object
	.size	_ZN15QColorConstantsL9DarkGreenE, 16
_ZN15QColorConstantsL9DarkGreenE:
	.long	1
	.value	-1
	.value	0
	.value	-32640
	.value	0
	.value	0
	.zero	2
	.align 16
	.type	_ZN15QColorConstantsL8DarkBlueE, @object
	.size	_ZN15QColorConstantsL8DarkBlueE, 16
_ZN15QColorConstantsL8DarkBlueE:
	.long	1
	.value	-1
	.value	0
	.value	0
	.value	-32640
	.value	0
	.zero	2
	.align 16
	.type	_ZN15QColorConstantsL8DarkCyanE, @object
	.size	_ZN15QColorConstantsL8DarkCyanE, 16
_ZN15QColorConstantsL8DarkCyanE:
	.long	1
	.value	-1
	.value	0
	.value	-32640
	.value	-32640
	.value	0
	.zero	2
	.align 16
	.type	_ZN15QColorConstantsL11DarkMagentaE, @object
	.size	_ZN15QColorConstantsL11DarkMagentaE, 16
_ZN15QColorConstantsL11DarkMagentaE:
	.long	1
	.value	-1
	.value	-32640
	.value	0
	.value	-32640
	.value	0
	.zero	2
	.align 16
	.type	_ZN15QColorConstantsL10DarkYellowE, @object
	.size	_ZN15QColorConstantsL10DarkYellowE, 16
_ZN15QColorConstantsL10DarkYellowE:
	.long	1
	.value	-1
	.value	-32640
	.value	-32640
	.value	0
	.value	0
	.zero	2
	.align 16
	.type	_ZN15QColorConstantsL11TransparentE, @object
	.size	_ZN15QColorConstantsL11TransparentE, 16
_ZN15QColorConstantsL11TransparentE:
	.long	1
	.value	0
	.value	0
	.value	0
	.value	0
	.value	0
	.zero	2
	.align 16
	.type	_ZN15QColorConstants3SvgL9aliceblueE, @object
	.size	_ZN15QColorConstants3SvgL9aliceblueE, 16
_ZN15QColorConstants3SvgL9aliceblueE:
	.long	1
	.value	-1
	.value	-3856
	.value	-1800
	.value	-1
	.value	0
	.zero	2
	.align 16
	.type	_ZN15QColorConstants3SvgL12antiquewhiteE, @object
	.size	_ZN15QColorConstants3SvgL12antiquewhiteE, 16
_ZN15QColorConstants3SvgL12antiquewhiteE:
	.long	1
	.value	-1
	.value	-1286
	.value	-5141
	.value	-10281
	.value	0
	.zero	2
	.align 16
	.type	_ZN15QColorConstants3SvgL4aquaE, @object
	.size	_ZN15QColorConstants3SvgL4aquaE, 16
_ZN15QColorConstants3SvgL4aquaE:
	.long	1
	.value	-1
	.value	0
	.value	-1
	.value	-1
	.value	0
	.zero	2
	.align 16
	.type	_ZN15QColorConstants3SvgL10aquamarineE, @object
	.size	_ZN15QColorConstants3SvgL10aquamarineE, 16
_ZN15QColorConstants3SvgL10aquamarineE:
	.long	1
	.value	-1
	.value	32639
	.value	-1
	.value	-11052
	.value	0
	.zero	2
	.align 16
	.type	_ZN15QColorConstants3SvgL5azureE, @object
	.size	_ZN15QColorConstants3SvgL5azureE, 16
_ZN15QColorConstants3SvgL5azureE:
	.long	1
	.value	-1
	.value	-3856
	.value	-1
	.value	-1
	.value	0
	.zero	2
	.align 16
	.type	_ZN15QColorConstants3SvgL5beigeE, @object
	.size	_ZN15QColorConstants3SvgL5beigeE, 16
_ZN15QColorConstants3SvgL5beigeE:
	.long	1
	.value	-1
	.value	-2571
	.value	-2571
	.value	-8996
	.value	0
	.zero	2
	.align 16
	.type	_ZN15QColorConstants3SvgL6bisqueE, @object
	.size	_ZN15QColorConstants3SvgL6bisqueE, 16
_ZN15QColorConstants3SvgL6bisqueE:
	.long	1
	.value	-1
	.value	-1
	.value	-6940
	.value	-15164
	.value	0
	.zero	2
	.align 16
	.type	_ZN15QColorConstants3SvgL5blackE, @object
	.size	_ZN15QColorConstants3SvgL5blackE, 16
_ZN15QColorConstants3SvgL5blackE:
	.long	1
	.value	-1
	.value	0
	.value	0
	.value	0
	.value	0
	.zero	2
	.align 16
	.type	_ZN15QColorConstants3SvgL14blanchedalmondE, @object
	.size	_ZN15QColorConstants3SvgL14blanchedalmondE, 16
_ZN15QColorConstants3SvgL14blanchedalmondE:
	.long	1
	.value	-1
	.value	-1
	.value	-5141
	.value	-12851
	.value	0
	.zero	2
	.align 16
	.type	_ZN15QColorConstants3SvgL4blueE, @object
	.size	_ZN15QColorConstants3SvgL4blueE, 16
_ZN15QColorConstants3SvgL4blueE:
	.long	1
	.value	-1
	.value	0
	.value	0
	.value	-1
	.value	0
	.zero	2
	.align 16
	.type	_ZN15QColorConstants3SvgL10bluevioletE, @object
	.size	_ZN15QColorConstants3SvgL10bluevioletE, 16
_ZN15QColorConstants3SvgL10bluevioletE:
	.long	1
	.value	-1
	.value	-30070
	.value	11051
	.value	-7454
	.value	0
	.zero	2
	.align 16
	.type	_ZN15QColorConstants3SvgL5brownE, @object
	.size	_ZN15QColorConstants3SvgL5brownE, 16
_ZN15QColorConstants3SvgL5brownE:
	.long	1
	.value	-1
	.value	-23131
	.value	10794
	.value	10794
	.value	0
	.zero	2
	.align 16
	.type	_ZN15QColorConstants3SvgL9burlywoodE, @object
	.size	_ZN15QColorConstants3SvgL9burlywoodE, 16
_ZN15QColorConstants3SvgL9burlywoodE:
	.long	1
	.value	-1
	.value	-8482
	.value	-18248
	.value	-30841
	.value	0
	.zero	2
	.align 16
	.type	_ZN15QColorConstants3SvgL9cadetblueE, @object
	.size	_ZN15QColorConstants3SvgL9cadetblueE, 16
_ZN15QColorConstants3SvgL9cadetblueE:
	.long	1
	.value	-1
	.value	24415
	.value	-24930
	.value	-24416
	.value	0
	.zero	2
	.align 16
	.type	_ZN15QColorConstants3SvgL10chartreuseE, @object
	.size	_ZN15QColorConstants3SvgL10chartreuseE, 16
_ZN15QColorConstants3SvgL10chartreuseE:
	.long	1
	.value	-1
	.value	32639
	.value	-1
	.value	0
	.value	0
	.zero	2
	.align 16
	.type	_ZN15QColorConstants3SvgL9chocolateE, @object
	.size	_ZN15QColorConstants3SvgL9chocolateE, 16
_ZN15QColorConstants3SvgL9chocolateE:
	.long	1
	.value	-1
	.value	-11566
	.value	26985
	.value	7710
	.value	0
	.zero	2
	.align 16
	.type	_ZN15QColorConstants3SvgL5coralE, @object
	.size	_ZN15QColorConstants3SvgL5coralE, 16
_ZN15QColorConstants3SvgL5coralE:
	.long	1
	.value	-1
	.value	-1
	.value	32639
	.value	20560
	.value	0
	.zero	2
	.align 16
	.type	_ZN15QColorConstants3SvgL14cornflowerblueE, @object
	.size	_ZN15QColorConstants3SvgL14cornflowerblueE, 16
_ZN15QColorConstants3SvgL14cornflowerblueE:
	.long	1
	.value	-1
	.value	25700
	.value	-27243
	.value	-4627
	.value	0
	.zero	2
	.align 16
	.type	_ZN15QColorConstants3SvgL8cornsilkE, @object
	.size	_ZN15QColorConstants3SvgL8cornsilkE, 16
_ZN15QColorConstants3SvgL8cornsilkE:
	.long	1
	.value	-1
	.value	-1
	.value	-1800
	.value	-8996
	.value	0
	.zero	2
	.align 16
	.type	_ZN15QColorConstants3SvgL7crimsonE, @object
	.size	_ZN15QColorConstants3SvgL7crimsonE, 16
_ZN15QColorConstants3SvgL7crimsonE:
	.long	1
	.value	-1
	.value	-8996
	.value	5140
	.value	15420
	.value	0
	.zero	2
	.align 16
	.type	_ZN15QColorConstants3SvgL4cyanE, @object
	.size	_ZN15QColorConstants3SvgL4cyanE, 16
_ZN15QColorConstants3SvgL4cyanE:
	.long	1
	.value	-1
	.value	0
	.value	-1
	.value	-1
	.value	0
	.zero	2
	.align 16
	.type	_ZN15QColorConstants3SvgL8darkblueE, @object
	.size	_ZN15QColorConstants3SvgL8darkblueE, 16
_ZN15QColorConstants3SvgL8darkblueE:
	.long	1
	.value	-1
	.value	0
	.value	0
	.value	-29813
	.value	0
	.zero	2
	.align 16
	.type	_ZN15QColorConstants3SvgL8darkcyanE, @object
	.size	_ZN15QColorConstants3SvgL8darkcyanE, 16
_ZN15QColorConstants3SvgL8darkcyanE:
	.long	1
	.value	-1
	.value	0
	.value	-29813
	.value	-29813
	.value	0
	.zero	2
	.align 16
	.type	_ZN15QColorConstants3SvgL13darkgoldenrodE, @object
	.size	_ZN15QColorConstants3SvgL13darkgoldenrodE, 16
_ZN15QColorConstants3SvgL13darkgoldenrodE:
	.long	1
	.value	-1
	.value	-18248
	.value	-31098
	.value	2827
	.value	0
	.zero	2
	.align 16
	.type	_ZN15QColorConstants3SvgL8darkgrayE, @object
	.size	_ZN15QColorConstants3SvgL8darkgrayE, 16
_ZN15QColorConstants3SvgL8darkgrayE:
	.long	1
	.value	-1
	.value	-22103
	.value	-22103
	.value	-22103
	.value	0
	.zero	2
	.align 16
	.type	_ZN15QColorConstants3SvgL9darkgreenE, @object
	.size	_ZN15QColorConstants3SvgL9darkgreenE, 16
_ZN15QColorConstants3SvgL9darkgreenE:
	.long	1
	.value	-1
	.value	0
	.value	25700
	.value	0
	.value	0
	.zero	2
	.align 16
	.type	_ZN15QColorConstants3SvgL8darkgreyE, @object
	.size	_ZN15QColorConstants3SvgL8darkgreyE, 16
_ZN15QColorConstants3SvgL8darkgreyE:
	.long	1
	.value	-1
	.value	-22103
	.value	-22103
	.value	-22103
	.value	0
	.zero	2
	.align 16
	.type	_ZN15QColorConstants3SvgL9darkkhakiE, @object
	.size	_ZN15QColorConstants3SvgL9darkkhakiE, 16
_ZN15QColorConstants3SvgL9darkkhakiE:
	.long	1
	.value	-1
	.value	-16963
	.value	-18505
	.value	27499
	.value	0
	.zero	2
	.align 16
	.type	_ZN15QColorConstants3SvgL11darkmagentaE, @object
	.size	_ZN15QColorConstants3SvgL11darkmagentaE, 16
_ZN15QColorConstants3SvgL11darkmagentaE:
	.long	1
	.value	-1
	.value	-29813
	.value	0
	.value	-29813
	.value	0
	.zero	2
	.align 16
	.type	_ZN15QColorConstants3SvgL14darkolivegreenE, @object
	.size	_ZN15QColorConstants3SvgL14darkolivegreenE, 16
_ZN15QColorConstants3SvgL14darkolivegreenE:
	.long	1
	.value	-1
	.value	21845
	.value	27499
	.value	12079
	.value	0
	.zero	2
	.align 16
	.type	_ZN15QColorConstants3SvgL10darkorangeE, @object
	.size	_ZN15QColorConstants3SvgL10darkorangeE, 16
_ZN15QColorConstants3SvgL10darkorangeE:
	.long	1
	.value	-1
	.value	-1
	.value	-29556
	.value	0
	.value	0
	.zero	2
	.align 16
	.type	_ZN15QColorConstants3SvgL10darkorchidE, @object
	.size	_ZN15QColorConstants3SvgL10darkorchidE, 16
_ZN15QColorConstants3SvgL10darkorchidE:
	.long	1
	.value	-1
	.value	-26215
	.value	12850
	.value	-13108
	.value	0
	.zero	2
	.align 16
	.type	_ZN15QColorConstants3SvgL7darkredE, @object
	.size	_ZN15QColorConstants3SvgL7darkredE, 16
_ZN15QColorConstants3SvgL7darkredE:
	.long	1
	.value	-1
	.value	-29813
	.value	0
	.value	0
	.value	0
	.zero	2
	.align 16
	.type	_ZN15QColorConstants3SvgL10darksalmonE, @object
	.size	_ZN15QColorConstants3SvgL10darksalmonE, 16
_ZN15QColorConstants3SvgL10darksalmonE:
	.long	1
	.value	-1
	.value	-5655
	.value	-26986
	.value	31354
	.value	0
	.zero	2
	.align 16
	.type	_ZN15QColorConstants3SvgL12darkseagreenE, @object
	.size	_ZN15QColorConstants3SvgL12darkseagreenE, 16
_ZN15QColorConstants3SvgL12darkseagreenE:
	.long	1
	.value	-1
	.value	-28785
	.value	-17220
	.value	-28785
	.value	0
	.zero	2
	.align 16
	.type	_ZN15QColorConstants3SvgL13darkslateblueE, @object
	.size	_ZN15QColorConstants3SvgL13darkslateblueE, 16
_ZN15QColorConstants3SvgL13darkslateblueE:
	.long	1
	.value	-1
	.value	18504
	.value	15677
	.value	-29813
	.value	0
	.zero	2
	.align 16
	.type	_ZN15QColorConstants3SvgL13darkslategrayE, @object
	.size	_ZN15QColorConstants3SvgL13darkslategrayE, 16
_ZN15QColorConstants3SvgL13darkslategrayE:
	.long	1
	.value	-1
	.value	12079
	.value	20303
	.value	20303
	.value	0
	.zero	2
	.align 16
	.type	_ZN15QColorConstants3SvgL13darkslategreyE, @object
	.size	_ZN15QColorConstants3SvgL13darkslategreyE, 16
_ZN15QColorConstants3SvgL13darkslategreyE:
	.long	1
	.value	-1
	.value	12079
	.value	20303
	.value	20303
	.value	0
	.zero	2
	.align 16
	.type	_ZN15QColorConstants3SvgL13darkturquoiseE, @object
	.size	_ZN15QColorConstants3SvgL13darkturquoiseE, 16
_ZN15QColorConstants3SvgL13darkturquoiseE:
	.long	1
	.value	-1
	.value	0
	.value	-12594
	.value	-11823
	.value	0
	.zero	2
	.align 16
	.type	_ZN15QColorConstants3SvgL10darkvioletE, @object
	.size	_ZN15QColorConstants3SvgL10darkvioletE, 16
_ZN15QColorConstants3SvgL10darkvioletE:
	.long	1
	.value	-1
	.value	-27500
	.value	0
	.value	-11309
	.value	0
	.zero	2
	.align 16
	.type	_ZN15QColorConstants3SvgL8deeppinkE, @object
	.size	_ZN15QColorConstants3SvgL8deeppinkE, 16
_ZN15QColorConstants3SvgL8deeppinkE:
	.long	1
	.value	-1
	.value	-1
	.value	5140
	.value	-27757
	.value	0
	.zero	2
	.align 16
	.type	_ZN15QColorConstants3SvgL11deepskyblueE, @object
	.size	_ZN15QColorConstants3SvgL11deepskyblueE, 16
_ZN15QColorConstants3SvgL11deepskyblueE:
	.long	1
	.value	-1
	.value	0
	.value	-16449
	.value	-1
	.value	0
	.zero	2
	.align 16
	.type	_ZN15QColorConstants3SvgL7dimgrayE, @object
	.size	_ZN15QColorConstants3SvgL7dimgrayE, 16
_ZN15QColorConstants3SvgL7dimgrayE:
	.long	1
	.value	-1
	.value	26985
	.value	26985
	.value	26985
	.value	0
	.zero	2
	.align 16
	.type	_ZN15QColorConstants3SvgL7dimgreyE, @object
	.size	_ZN15QColorConstants3SvgL7dimgreyE, 16
_ZN15QColorConstants3SvgL7dimgreyE:
	.long	1
	.value	-1
	.value	26985
	.value	26985
	.value	26985
	.value	0
	.zero	2
	.align 16
	.type	_ZN15QColorConstants3SvgL10dodgerblueE, @object
	.size	_ZN15QColorConstants3SvgL10dodgerblueE, 16
_ZN15QColorConstants3SvgL10dodgerblueE:
	.long	1
	.value	-1
	.value	7710
	.value	-28528
	.value	-1
	.value	0
	.zero	2
	.align 16
	.type	_ZN15QColorConstants3SvgL9firebrickE, @object
	.size	_ZN15QColorConstants3SvgL9firebrickE, 16
_ZN15QColorConstants3SvgL9firebrickE:
	.long	1
	.value	-1
	.value	-19790
	.value	8738
	.value	8738
	.value	0
	.zero	2
	.align 16
	.type	_ZN15QColorConstants3SvgL11floralwhiteE, @object
	.size	_ZN15QColorConstants3SvgL11floralwhiteE, 16
_ZN15QColorConstants3SvgL11floralwhiteE:
	.long	1
	.value	-1
	.value	-1
	.value	-1286
	.value	-3856
	.value	0
	.zero	2
	.align 16
	.type	_ZN15QColorConstants3SvgL11forestgreenE, @object
	.size	_ZN15QColorConstants3SvgL11forestgreenE, 16
_ZN15QColorConstants3SvgL11forestgreenE:
	.long	1
	.value	-1
	.value	8738
	.value	-29813
	.value	8738
	.value	0
	.zero	2
	.align 16
	.type	_ZN15QColorConstants3SvgL7fuchsiaE, @object
	.size	_ZN15QColorConstants3SvgL7fuchsiaE, 16
_ZN15QColorConstants3SvgL7fuchsiaE:
	.long	1
	.value	-1
	.value	-1
	.value	0
	.value	-1
	.value	0
	.zero	2
	.align 16
	.type	_ZN15QColorConstants3SvgL9gainsboroE, @object
	.size	_ZN15QColorConstants3SvgL9gainsboroE, 16
_ZN15QColorConstants3SvgL9gainsboroE:
	.long	1
	.value	-1
	.value	-8996
	.value	-8996
	.value	-8996
	.value	0
	.zero	2
	.align 16
	.type	_ZN15QColorConstants3SvgL10ghostwhiteE, @object
	.size	_ZN15QColorConstants3SvgL10ghostwhiteE, 16
_ZN15QColorConstants3SvgL10ghostwhiteE:
	.long	1
	.value	-1
	.value	-1800
	.value	-1800
	.value	-1
	.value	0
	.zero	2
	.align 16
	.type	_ZN15QColorConstants3SvgL4goldE, @object
	.size	_ZN15QColorConstants3SvgL4goldE, 16
_ZN15QColorConstants3SvgL4goldE:
	.long	1
	.value	-1
	.value	-1
	.value	-10281
	.value	0
	.value	0
	.zero	2
	.align 16
	.type	_ZN15QColorConstants3SvgL9goldenrodE, @object
	.size	_ZN15QColorConstants3SvgL9goldenrodE, 16
_ZN15QColorConstants3SvgL9goldenrodE:
	.long	1
	.value	-1
	.value	-9510
	.value	-23131
	.value	8224
	.value	0
	.zero	2
	.align 16
	.type	_ZN15QColorConstants3SvgL4grayE, @object
	.size	_ZN15QColorConstants3SvgL4grayE, 16
_ZN15QColorConstants3SvgL4grayE:
	.long	1
	.value	-1
	.value	-32640
	.value	-32640
	.value	-32640
	.value	0
	.zero	2
	.align 16
	.type	_ZN15QColorConstants3SvgL5greenE, @object
	.size	_ZN15QColorConstants3SvgL5greenE, 16
_ZN15QColorConstants3SvgL5greenE:
	.long	1
	.value	-1
	.value	0
	.value	-32640
	.value	0
	.value	0
	.zero	2
	.align 16
	.type	_ZN15QColorConstants3SvgL11greenyellowE, @object
	.size	_ZN15QColorConstants3SvgL11greenyellowE, 16
_ZN15QColorConstants3SvgL11greenyellowE:
	.long	1
	.value	-1
	.value	-21075
	.value	-1
	.value	12079
	.value	0
	.zero	2
	.align 16
	.type	_ZN15QColorConstants3SvgL4greyE, @object
	.size	_ZN15QColorConstants3SvgL4greyE, 16
_ZN15QColorConstants3SvgL4greyE:
	.long	1
	.value	-1
	.value	-32640
	.value	-32640
	.value	-32640
	.value	0
	.zero	2
	.align 16
	.type	_ZN15QColorConstants3SvgL8honeydewE, @object
	.size	_ZN15QColorConstants3SvgL8honeydewE, 16
_ZN15QColorConstants3SvgL8honeydewE:
	.long	1
	.value	-1
	.value	-3856
	.value	-1
	.value	-3856
	.value	0
	.zero	2
	.align 16
	.type	_ZN15QColorConstants3SvgL7hotpinkE, @object
	.size	_ZN15QColorConstants3SvgL7hotpinkE, 16
_ZN15QColorConstants3SvgL7hotpinkE:
	.long	1
	.value	-1
	.value	-1
	.value	26985
	.value	-19276
	.value	0
	.zero	2
	.align 16
	.type	_ZN15QColorConstants3SvgL9indianredE, @object
	.size	_ZN15QColorConstants3SvgL9indianredE, 16
_ZN15QColorConstants3SvgL9indianredE:
	.long	1
	.value	-1
	.value	-12851
	.value	23644
	.value	23644
	.value	0
	.zero	2
	.align 16
	.type	_ZN15QColorConstants3SvgL6indigoE, @object
	.size	_ZN15QColorConstants3SvgL6indigoE, 16
_ZN15QColorConstants3SvgL6indigoE:
	.long	1
	.value	-1
	.value	19275
	.value	0
	.value	-32126
	.value	0
	.zero	2
	.align 16
	.type	_ZN15QColorConstants3SvgL5ivoryE, @object
	.size	_ZN15QColorConstants3SvgL5ivoryE, 16
_ZN15QColorConstants3SvgL5ivoryE:
	.long	1
	.value	-1
	.value	-1
	.value	-1
	.value	-3856
	.value	0
	.zero	2
	.align 16
	.type	_ZN15QColorConstants3SvgL5khakiE, @object
	.size	_ZN15QColorConstants3SvgL5khakiE, 16
_ZN15QColorConstants3SvgL5khakiE:
	.long	1
	.value	-1
	.value	-3856
	.value	-6426
	.value	-29556
	.value	0
	.zero	2
	.align 16
	.type	_ZN15QColorConstants3SvgL8lavenderE, @object
	.size	_ZN15QColorConstants3SvgL8lavenderE, 16
_ZN15QColorConstants3SvgL8lavenderE:
	.long	1
	.value	-1
	.value	-6426
	.value	-6426
	.value	-1286
	.value	0
	.zero	2
	.align 16
	.type	_ZN15QColorConstants3SvgL13lavenderblushE, @object
	.size	_ZN15QColorConstants3SvgL13lavenderblushE, 16
_ZN15QColorConstants3SvgL13lavenderblushE:
	.long	1
	.value	-1
	.value	-1
	.value	-3856
	.value	-2571
	.value	0
	.zero	2
	.align 16
	.type	_ZN15QColorConstants3SvgL9lawngreenE, @object
	.size	_ZN15QColorConstants3SvgL9lawngreenE, 16
_ZN15QColorConstants3SvgL9lawngreenE:
	.long	1
	.value	-1
	.value	31868
	.value	-772
	.value	0
	.value	0
	.zero	2
	.align 16
	.type	_ZN15QColorConstants3SvgL12lemonchiffonE, @object
	.size	_ZN15QColorConstants3SvgL12lemonchiffonE, 16
_ZN15QColorConstants3SvgL12lemonchiffonE:
	.long	1
	.value	-1
	.value	-1
	.value	-1286
	.value	-12851
	.value	0
	.zero	2
	.align 16
	.type	_ZN15QColorConstants3SvgL9lightblueE, @object
	.size	_ZN15QColorConstants3SvgL9lightblueE, 16
_ZN15QColorConstants3SvgL9lightblueE:
	.long	1
	.value	-1
	.value	-21075
	.value	-10024
	.value	-6426
	.value	0
	.zero	2
	.align 16
	.type	_ZN15QColorConstants3SvgL10lightcoralE, @object
	.size	_ZN15QColorConstants3SvgL10lightcoralE, 16
_ZN15QColorConstants3SvgL10lightcoralE:
	.long	1
	.value	-1
	.value	-3856
	.value	-32640
	.value	-32640
	.value	0
	.zero	2
	.align 16
	.type	_ZN15QColorConstants3SvgL9lightcyanE, @object
	.size	_ZN15QColorConstants3SvgL9lightcyanE, 16
_ZN15QColorConstants3SvgL9lightcyanE:
	.long	1
	.value	-1
	.value	-7968
	.value	-1
	.value	-1
	.value	0
	.zero	2
	.align 16
	.type	_ZN15QColorConstants3SvgL20lightgoldenrodyellowE, @object
	.size	_ZN15QColorConstants3SvgL20lightgoldenrodyellowE, 16
_ZN15QColorConstants3SvgL20lightgoldenrodyellowE:
	.long	1
	.value	-1
	.value	-1286
	.value	-1286
	.value	-11566
	.value	0
	.zero	2
	.align 16
	.type	_ZN15QColorConstants3SvgL9lightgrayE, @object
	.size	_ZN15QColorConstants3SvgL9lightgrayE, 16
_ZN15QColorConstants3SvgL9lightgrayE:
	.long	1
	.value	-1
	.value	-11309
	.value	-11309
	.value	-11309
	.value	0
	.zero	2
	.align 16
	.type	_ZN15QColorConstants3SvgL10lightgreenE, @object
	.size	_ZN15QColorConstants3SvgL10lightgreenE, 16
_ZN15QColorConstants3SvgL10lightgreenE:
	.long	1
	.value	-1
	.value	-28528
	.value	-4370
	.value	-28528
	.value	0
	.zero	2
	.align 16
	.type	_ZN15QColorConstants3SvgL9lightgreyE, @object
	.size	_ZN15QColorConstants3SvgL9lightgreyE, 16
_ZN15QColorConstants3SvgL9lightgreyE:
	.long	1
	.value	-1
	.value	-11309
	.value	-11309
	.value	-11309
	.value	0
	.zero	2
	.align 16
	.type	_ZN15QColorConstants3SvgL9lightpinkE, @object
	.size	_ZN15QColorConstants3SvgL9lightpinkE, 16
_ZN15QColorConstants3SvgL9lightpinkE:
	.long	1
	.value	-1
	.value	-1
	.value	-18762
	.value	-15935
	.value	0
	.zero	2
	.align 16
	.type	_ZN15QColorConstants3SvgL11lightsalmonE, @object
	.size	_ZN15QColorConstants3SvgL11lightsalmonE, 16
_ZN15QColorConstants3SvgL11lightsalmonE:
	.long	1
	.value	-1
	.value	-1
	.value	-24416
	.value	31354
	.value	0
	.zero	2
	.align 16
	.type	_ZN15QColorConstants3SvgL13lightseagreenE, @object
	.size	_ZN15QColorConstants3SvgL13lightseagreenE, 16
_ZN15QColorConstants3SvgL13lightseagreenE:
	.long	1
	.value	-1
	.value	8224
	.value	-19790
	.value	-21846
	.value	0
	.zero	2
	.align 16
	.type	_ZN15QColorConstants3SvgL12lightskyblueE, @object
	.size	_ZN15QColorConstants3SvgL12lightskyblueE, 16
_ZN15QColorConstants3SvgL12lightskyblueE:
	.long	1
	.value	-1
	.value	-30841
	.value	-12594
	.value	-1286
	.value	0
	.zero	2
	.align 16
	.type	_ZN15QColorConstants3SvgL14lightslategrayE, @object
	.size	_ZN15QColorConstants3SvgL14lightslategrayE, 16
_ZN15QColorConstants3SvgL14lightslategrayE:
	.long	1
	.value	-1
	.value	30583
	.value	-30584
	.value	-26215
	.value	0
	.zero	2
	.align 16
	.type	_ZN15QColorConstants3SvgL14lightslategreyE, @object
	.size	_ZN15QColorConstants3SvgL14lightslategreyE, 16
_ZN15QColorConstants3SvgL14lightslategreyE:
	.long	1
	.value	-1
	.value	30583
	.value	-30584
	.value	-26215
	.value	0
	.zero	2
	.align 16
	.type	_ZN15QColorConstants3SvgL14lightsteelblueE, @object
	.size	_ZN15QColorConstants3SvgL14lightsteelblueE, 16
_ZN15QColorConstants3SvgL14lightsteelblueE:
	.long	1
	.value	-1
	.value	-20304
	.value	-15164
	.value	-8482
	.value	0
	.zero	2
	.align 16
	.type	_ZN15QColorConstants3SvgL11lightyellowE, @object
	.size	_ZN15QColorConstants3SvgL11lightyellowE, 16
_ZN15QColorConstants3SvgL11lightyellowE:
	.long	1
	.value	-1
	.value	-1
	.value	-1
	.value	-7968
	.value	0
	.zero	2
	.align 16
	.type	_ZN15QColorConstants3SvgL4limeE, @object
	.size	_ZN15QColorConstants3SvgL4limeE, 16
_ZN15QColorConstants3SvgL4limeE:
	.long	1
	.value	-1
	.value	0
	.value	-1
	.value	0
	.value	0
	.zero	2
	.align 16
	.type	_ZN15QColorConstants3SvgL9limegreenE, @object
	.size	_ZN15QColorConstants3SvgL9limegreenE, 16
_ZN15QColorConstants3SvgL9limegreenE:
	.long	1
	.value	-1
	.value	12850
	.value	-12851
	.value	12850
	.value	0
	.zero	2
	.align 16
	.type	_ZN15QColorConstants3SvgL5linenE, @object
	.size	_ZN15QColorConstants3SvgL5linenE, 16
_ZN15QColorConstants3SvgL5linenE:
	.long	1
	.value	-1
	.value	-1286
	.value	-3856
	.value	-6426
	.value	0
	.zero	2
	.align 16
	.type	_ZN15QColorConstants3SvgL7magentaE, @object
	.size	_ZN15QColorConstants3SvgL7magentaE, 16
_ZN15QColorConstants3SvgL7magentaE:
	.long	1
	.value	-1
	.value	-1
	.value	0
	.value	-1
	.value	0
	.zero	2
	.align 16
	.type	_ZN15QColorConstants3SvgL6maroonE, @object
	.size	_ZN15QColorConstants3SvgL6maroonE, 16
_ZN15QColorConstants3SvgL6maroonE:
	.long	1
	.value	-1
	.value	-32640
	.value	0
	.value	0
	.value	0
	.zero	2
	.align 16
	.type	_ZN15QColorConstants3SvgL16mediumaquamarineE, @object
	.size	_ZN15QColorConstants3SvgL16mediumaquamarineE, 16
_ZN15QColorConstants3SvgL16mediumaquamarineE:
	.long	1
	.value	-1
	.value	26214
	.value	-12851
	.value	-21846
	.value	0
	.zero	2
	.align 16
	.type	_ZN15QColorConstants3SvgL10mediumblueE, @object
	.size	_ZN15QColorConstants3SvgL10mediumblueE, 16
_ZN15QColorConstants3SvgL10mediumblueE:
	.long	1
	.value	-1
	.value	0
	.value	0
	.value	-12851
	.value	0
	.zero	2
	.align 16
	.type	_ZN15QColorConstants3SvgL12mediumorchidE, @object
	.size	_ZN15QColorConstants3SvgL12mediumorchidE, 16
_ZN15QColorConstants3SvgL12mediumorchidE:
	.long	1
	.value	-1
	.value	-17734
	.value	21845
	.value	-11309
	.value	0
	.zero	2
	.align 16
	.type	_ZN15QColorConstants3SvgL12mediumpurpleE, @object
	.size	_ZN15QColorConstants3SvgL12mediumpurpleE, 16
_ZN15QColorConstants3SvgL12mediumpurpleE:
	.long	1
	.value	-1
	.value	-27757
	.value	28784
	.value	-9253
	.value	0
	.zero	2
	.align 16
	.type	_ZN15QColorConstants3SvgL14mediumseagreenE, @object
	.size	_ZN15QColorConstants3SvgL14mediumseagreenE, 16
_ZN15QColorConstants3SvgL14mediumseagreenE:
	.long	1
	.value	-1
	.value	15420
	.value	-19533
	.value	29041
	.value	0
	.zero	2
	.align 16
	.type	_ZN15QColorConstants3SvgL15mediumslateblueE, @object
	.size	_ZN15QColorConstants3SvgL15mediumslateblueE, 16
_ZN15QColorConstants3SvgL15mediumslateblueE:
	.long	1
	.value	-1
	.value	31611
	.value	26728
	.value	-4370
	.value	0
	.zero	2
	.align 16
	.type	_ZN15QColorConstants3SvgL17mediumspringgreenE, @object
	.size	_ZN15QColorConstants3SvgL17mediumspringgreenE, 16
_ZN15QColorConstants3SvgL17mediumspringgreenE:
	.long	1
	.value	-1
	.value	0
	.value	-1286
	.value	-25958
	.value	0
	.zero	2
	.align 16
	.type	_ZN15QColorConstants3SvgL15mediumturquoiseE, @object
	.size	_ZN15QColorConstants3SvgL15mediumturquoiseE, 16
_ZN15QColorConstants3SvgL15mediumturquoiseE:
	.long	1
	.value	-1
	.value	18504
	.value	-11823
	.value	-13108
	.value	0
	.zero	2
	.align 16
	.type	_ZN15QColorConstants3SvgL15mediumvioletredE, @object
	.size	_ZN15QColorConstants3SvgL15mediumvioletredE, 16
_ZN15QColorConstants3SvgL15mediumvioletredE:
	.long	1
	.value	-1
	.value	-14393
	.value	5397
	.value	-31355
	.value	0
	.zero	2
	.align 16
	.type	_ZN15QColorConstants3SvgL12midnightblueE, @object
	.size	_ZN15QColorConstants3SvgL12midnightblueE, 16
_ZN15QColorConstants3SvgL12midnightblueE:
	.long	1
	.value	-1
	.value	6425
	.value	6425
	.value	28784
	.value	0
	.zero	2
	.align 16
	.type	_ZN15QColorConstants3SvgL9mintcreamE, @object
	.size	_ZN15QColorConstants3SvgL9mintcreamE, 16
_ZN15QColorConstants3SvgL9mintcreamE:
	.long	1
	.value	-1
	.value	-2571
	.value	-1
	.value	-1286
	.value	0
	.zero	2
	.align 16
	.type	_ZN15QColorConstants3SvgL9mistyroseE, @object
	.size	_ZN15QColorConstants3SvgL9mistyroseE, 16
_ZN15QColorConstants3SvgL9mistyroseE:
	.long	1
	.value	-1
	.value	-1
	.value	-6940
	.value	-7711
	.value	0
	.zero	2
	.align 16
	.type	_ZN15QColorConstants3SvgL8moccasinE, @object
	.size	_ZN15QColorConstants3SvgL8moccasinE, 16
_ZN15QColorConstants3SvgL8moccasinE:
	.long	1
	.value	-1
	.value	-1
	.value	-6940
	.value	-19019
	.value	0
	.zero	2
	.align 16
	.type	_ZN15QColorConstants3SvgL11navajowhiteE, @object
	.size	_ZN15QColorConstants3SvgL11navajowhiteE, 16
_ZN15QColorConstants3SvgL11navajowhiteE:
	.long	1
	.value	-1
	.value	-1
	.value	-8482
	.value	-21075
	.value	0
	.zero	2
	.align 16
	.type	_ZN15QColorConstants3SvgL4navyE, @object
	.size	_ZN15QColorConstants3SvgL4navyE, 16
_ZN15QColorConstants3SvgL4navyE:
	.long	1
	.value	-1
	.value	0
	.value	0
	.value	-32640
	.value	0
	.zero	2
	.align 16
	.type	_ZN15QColorConstants3SvgL7oldlaceE, @object
	.size	_ZN15QColorConstants3SvgL7oldlaceE, 16
_ZN15QColorConstants3SvgL7oldlaceE:
	.long	1
	.value	-1
	.value	-515
	.value	-2571
	.value	-6426
	.value	0
	.zero	2
	.align 16
	.type	_ZN15QColorConstants3SvgL5oliveE, @object
	.size	_ZN15QColorConstants3SvgL5oliveE, 16
_ZN15QColorConstants3SvgL5oliveE:
	.long	1
	.value	-1
	.value	-32640
	.value	-32640
	.value	0
	.value	0
	.zero	2
	.align 16
	.type	_ZN15QColorConstants3SvgL9olivedrabE, @object
	.size	_ZN15QColorConstants3SvgL9olivedrabE, 16
_ZN15QColorConstants3SvgL9olivedrabE:
	.long	1
	.value	-1
	.value	27499
	.value	-29042
	.value	8995
	.value	0
	.zero	2
	.align 16
	.type	_ZN15QColorConstants3SvgL6orangeE, @object
	.size	_ZN15QColorConstants3SvgL6orangeE, 16
_ZN15QColorConstants3SvgL6orangeE:
	.long	1
	.value	-1
	.value	-1
	.value	-23131
	.value	0
	.value	0
	.zero	2
	.align 16
	.type	_ZN15QColorConstants3SvgL9orangeredE, @object
	.size	_ZN15QColorConstants3SvgL9orangeredE, 16
_ZN15QColorConstants3SvgL9orangeredE:
	.long	1
	.value	-1
	.value	-1
	.value	17733
	.value	0
	.value	0
	.zero	2
	.align 16
	.type	_ZN15QColorConstants3SvgL6orchidE, @object
	.size	_ZN15QColorConstants3SvgL6orchidE, 16
_ZN15QColorConstants3SvgL6orchidE:
	.long	1
	.value	-1
	.value	-9510
	.value	28784
	.value	-10538
	.value	0
	.zero	2
	.align 16
	.type	_ZN15QColorConstants3SvgL13palegoldenrodE, @object
	.size	_ZN15QColorConstants3SvgL13palegoldenrodE, 16
_ZN15QColorConstants3SvgL13palegoldenrodE:
	.long	1
	.value	-1
	.value	-4370
	.value	-5912
	.value	-21846
	.value	0
	.zero	2
	.align 16
	.type	_ZN15QColorConstants3SvgL9palegreenE, @object
	.size	_ZN15QColorConstants3SvgL9palegreenE, 16
_ZN15QColorConstants3SvgL9palegreenE:
	.long	1
	.value	-1
	.value	-26472
	.value	-1029
	.value	-26472
	.value	0
	.zero	2
	.align 16
	.type	_ZN15QColorConstants3SvgL13paleturquoiseE, @object
	.size	_ZN15QColorConstants3SvgL13paleturquoiseE, 16
_ZN15QColorConstants3SvgL13paleturquoiseE:
	.long	1
	.value	-1
	.value	-20561
	.value	-4370
	.value	-4370
	.value	0
	.zero	2
	.align 16
	.type	_ZN15QColorConstants3SvgL13palevioletredE, @object
	.size	_ZN15QColorConstants3SvgL13palevioletredE, 16
_ZN15QColorConstants3SvgL13palevioletredE:
	.long	1
	.value	-1
	.value	-9253
	.value	28784
	.value	-27757
	.value	0
	.zero	2
	.align 16
	.type	_ZN15QColorConstants3SvgL10papayawhipE, @object
	.size	_ZN15QColorConstants3SvgL10papayawhipE, 16
_ZN15QColorConstants3SvgL10papayawhipE:
	.long	1
	.value	-1
	.value	-1
	.value	-4113
	.value	-10795
	.value	0
	.zero	2
	.align 16
	.type	_ZN15QColorConstants3SvgL9peachpuffE, @object
	.size	_ZN15QColorConstants3SvgL9peachpuffE, 16
_ZN15QColorConstants3SvgL9peachpuffE:
	.long	1
	.value	-1
	.value	-1
	.value	-9510
	.value	-17991
	.value	0
	.zero	2
	.align 16
	.type	_ZN15QColorConstants3SvgL4peruE, @object
	.size	_ZN15QColorConstants3SvgL4peruE, 16
_ZN15QColorConstants3SvgL4peruE:
	.long	1
	.value	-1
	.value	-12851
	.value	-31355
	.value	16191
	.value	0
	.zero	2
	.align 16
	.type	_ZN15QColorConstants3SvgL4pinkE, @object
	.size	_ZN15QColorConstants3SvgL4pinkE, 16
_ZN15QColorConstants3SvgL4pinkE:
	.long	1
	.value	-1
	.value	-1
	.value	-16192
	.value	-13365
	.value	0
	.zero	2
	.align 16
	.type	_ZN15QColorConstants3SvgL4plumE, @object
	.size	_ZN15QColorConstants3SvgL4plumE, 16
_ZN15QColorConstants3SvgL4plumE:
	.long	1
	.value	-1
	.value	-8739
	.value	-24416
	.value	-8739
	.value	0
	.zero	2
	.align 16
	.type	_ZN15QColorConstants3SvgL10powderblueE, @object
	.size	_ZN15QColorConstants3SvgL10powderblueE, 16
_ZN15QColorConstants3SvgL10powderblueE:
	.long	1
	.value	-1
	.value	-20304
	.value	-7968
	.value	-6426
	.value	0
	.zero	2
	.align 16
	.type	_ZN15QColorConstants3SvgL6purpleE, @object
	.size	_ZN15QColorConstants3SvgL6purpleE, 16
_ZN15QColorConstants3SvgL6purpleE:
	.long	1
	.value	-1
	.value	-32640
	.value	0
	.value	-32640
	.value	0
	.zero	2
	.align 16
	.type	_ZN15QColorConstants3SvgL3redE, @object
	.size	_ZN15QColorConstants3SvgL3redE, 16
_ZN15QColorConstants3SvgL3redE:
	.long	1
	.value	-1
	.value	-1
	.value	0
	.value	0
	.value	0
	.zero	2
	.align 16
	.type	_ZN15QColorConstants3SvgL9rosybrownE, @object
	.size	_ZN15QColorConstants3SvgL9rosybrownE, 16
_ZN15QColorConstants3SvgL9rosybrownE:
	.long	1
	.value	-1
	.value	-17220
	.value	-28785
	.value	-28785
	.value	0
	.zero	2
	.align 16
	.type	_ZN15QColorConstants3SvgL9royalblueE, @object
	.size	_ZN15QColorConstants3SvgL9royalblueE, 16
_ZN15QColorConstants3SvgL9royalblueE:
	.long	1
	.value	-1
	.value	16705
	.value	26985
	.value	-7711
	.value	0
	.zero	2
	.align 16
	.type	_ZN15QColorConstants3SvgL11saddlebrownE, @object
	.size	_ZN15QColorConstants3SvgL11saddlebrownE, 16
_ZN15QColorConstants3SvgL11saddlebrownE:
	.long	1
	.value	-1
	.value	-29813
	.value	17733
	.value	4883
	.value	0
	.zero	2
	.align 16
	.type	_ZN15QColorConstants3SvgL6salmonE, @object
	.size	_ZN15QColorConstants3SvgL6salmonE, 16
_ZN15QColorConstants3SvgL6salmonE:
	.long	1
	.value	-1
	.value	-1286
	.value	-32640
	.value	29298
	.value	0
	.zero	2
	.align 16
	.type	_ZN15QColorConstants3SvgL10sandybrownE, @object
	.size	_ZN15QColorConstants3SvgL10sandybrownE, 16
_ZN15QColorConstants3SvgL10sandybrownE:
	.long	1
	.value	-1
	.value	-2828
	.value	-23388
	.value	24672
	.value	0
	.zero	2
	.align 16
	.type	_ZN15QColorConstants3SvgL8seagreenE, @object
	.size	_ZN15QColorConstants3SvgL8seagreenE, 16
_ZN15QColorConstants3SvgL8seagreenE:
	.long	1
	.value	-1
	.value	11822
	.value	-29813
	.value	22359
	.value	0
	.zero	2
	.align 16
	.type	_ZN15QColorConstants3SvgL8seashellE, @object
	.size	_ZN15QColorConstants3SvgL8seashellE, 16
_ZN15QColorConstants3SvgL8seashellE:
	.long	1
	.value	-1
	.value	-1
	.value	-2571
	.value	-4370
	.value	0
	.zero	2
	.align 16
	.type	_ZN15QColorConstants3SvgL6siennaE, @object
	.size	_ZN15QColorConstants3SvgL6siennaE, 16
_ZN15QColorConstants3SvgL6siennaE:
	.long	1
	.value	-1
	.value	-24416
	.value	21074
	.value	11565
	.value	0
	.zero	2
	.align 16
	.type	_ZN15QColorConstants3SvgL6silverE, @object
	.size	_ZN15QColorConstants3SvgL6silverE, 16
_ZN15QColorConstants3SvgL6silverE:
	.long	1
	.value	-1
	.value	-16192
	.value	-16192
	.value	-16192
	.value	0
	.zero	2
	.align 16
	.type	_ZN15QColorConstants3SvgL7skyblueE, @object
	.size	_ZN15QColorConstants3SvgL7skyblueE, 16
_ZN15QColorConstants3SvgL7skyblueE:
	.long	1
	.value	-1
	.value	-30841
	.value	-12594
	.value	-5141
	.value	0
	.zero	2
	.align 16
	.type	_ZN15QColorConstants3SvgL9slateblueE, @object
	.size	_ZN15QColorConstants3SvgL9slateblueE, 16
_ZN15QColorConstants3SvgL9slateblueE:
	.long	1
	.value	-1
	.value	27242
	.value	23130
	.value	-12851
	.value	0
	.zero	2
	.align 16
	.type	_ZN15QColorConstants3SvgL9slategrayE, @object
	.size	_ZN15QColorConstants3SvgL9slategrayE, 16
_ZN15QColorConstants3SvgL9slategrayE:
	.long	1
	.value	-1
	.value	28784
	.value	-32640
	.value	-28528
	.value	0
	.zero	2
	.align 16
	.type	_ZN15QColorConstants3SvgL9slategreyE, @object
	.size	_ZN15QColorConstants3SvgL9slategreyE, 16
_ZN15QColorConstants3SvgL9slategreyE:
	.long	1
	.value	-1
	.value	28784
	.value	-32640
	.value	-28528
	.value	0
	.zero	2
	.align 16
	.type	_ZN15QColorConstants3SvgL4snowE, @object
	.size	_ZN15QColorConstants3SvgL4snowE, 16
_ZN15QColorConstants3SvgL4snowE:
	.long	1
	.value	-1
	.value	-1
	.value	-1286
	.value	-1286
	.value	0
	.zero	2
	.align 16
	.type	_ZN15QColorConstants3SvgL11springgreenE, @object
	.size	_ZN15QColorConstants3SvgL11springgreenE, 16
_ZN15QColorConstants3SvgL11springgreenE:
	.long	1
	.value	-1
	.value	0
	.value	-1
	.value	32639
	.value	0
	.zero	2
	.align 16
	.type	_ZN15QColorConstants3SvgL9steelblueE, @object
	.size	_ZN15QColorConstants3SvgL9steelblueE, 16
_ZN15QColorConstants3SvgL9steelblueE:
	.long	1
	.value	-1
	.value	17990
	.value	-32126
	.value	-19276
	.value	0
	.zero	2
	.align 16
	.type	_ZN15QColorConstants3SvgL3tanE, @object
	.size	_ZN15QColorConstants3SvgL3tanE, 16
_ZN15QColorConstants3SvgL3tanE:
	.long	1
	.value	-1
	.value	-11566
	.value	-19276
	.value	-29556
	.value	0
	.zero	2
	.align 16
	.type	_ZN15QColorConstants3SvgL4tealE, @object
	.size	_ZN15QColorConstants3SvgL4tealE, 16
_ZN15QColorConstants3SvgL4tealE:
	.long	1
	.value	-1
	.value	0
	.value	-32640
	.value	-32640
	.value	0
	.zero	2
	.align 16
	.type	_ZN15QColorConstants3SvgL7thistleE, @object
	.size	_ZN15QColorConstants3SvgL7thistleE, 16
_ZN15QColorConstants3SvgL7thistleE:
	.long	1
	.value	-1
	.value	-10024
	.value	-16449
	.value	-10024
	.value	0
	.zero	2
	.align 16
	.type	_ZN15QColorConstants3SvgL6tomatoE, @object
	.size	_ZN15QColorConstants3SvgL6tomatoE, 16
_ZN15QColorConstants3SvgL6tomatoE:
	.long	1
	.value	-1
	.value	-1
	.value	25443
	.value	18247
	.value	0
	.zero	2
	.align 16
	.type	_ZN15QColorConstants3SvgL9turquoiseE, @object
	.size	_ZN15QColorConstants3SvgL9turquoiseE, 16
_ZN15QColorConstants3SvgL9turquoiseE:
	.long	1
	.value	-1
	.value	16448
	.value	-7968
	.value	-12080
	.value	0
	.zero	2
	.align 16
	.type	_ZN15QColorConstants3SvgL6violetE, @object
	.size	_ZN15QColorConstants3SvgL6violetE, 16
_ZN15QColorConstants3SvgL6violetE:
	.long	1
	.value	-1
	.value	-4370
	.value	-32126
	.value	-4370
	.value	0
	.zero	2
	.align 16
	.type	_ZN15QColorConstants3SvgL5wheatE, @object
	.size	_ZN15QColorConstants3SvgL5wheatE, 16
_ZN15QColorConstants3SvgL5wheatE:
	.long	1
	.value	-1
	.value	-2571
	.value	-8482
	.value	-19533
	.value	0
	.zero	2
	.align 16
	.type	_ZN15QColorConstants3SvgL5whiteE, @object
	.size	_ZN15QColorConstants3SvgL5whiteE, 16
_ZN15QColorConstants3SvgL5whiteE:
	.long	1
	.value	-1
	.value	-1
	.value	-1
	.value	-1
	.value	0
	.zero	2
	.align 16
	.type	_ZN15QColorConstants3SvgL10whitesmokeE, @object
	.size	_ZN15QColorConstants3SvgL10whitesmokeE, 16
_ZN15QColorConstants3SvgL10whitesmokeE:
	.long	1
	.value	-1
	.value	-2571
	.value	-2571
	.value	-2571
	.value	0
	.zero	2
	.align 16
	.type	_ZN15QColorConstants3SvgL6yellowE, @object
	.size	_ZN15QColorConstants3SvgL6yellowE, 16
_ZN15QColorConstants3SvgL6yellowE:
	.long	1
	.value	-1
	.value	-1
	.value	-1
	.value	0
	.value	0
	.zero	2
	.align 16
	.type	_ZN15QColorConstants3SvgL11yellowgreenE, @object
	.size	_ZN15QColorConstants3SvgL11yellowgreenE, 16
_ZN15QColorConstants3SvgL11yellowgreenE:
	.long	1
	.value	-1
	.value	-25958
	.value	-12851
	.value	12850
	.value	0
	.zero	2
	.section	.text._ZNK6QBrush5styleEv,"axG",@progbits,_ZNK6QBrush5styleEv,comdat
	.align 2
	.weak	_ZNK6QBrush5styleEv
	.type	_ZNK6QBrush5styleEv, @function
_ZNK6QBrush5styleEv:
.LFB8679:
	.cfi_startproc
	endbr64
	pushq	%rbp
	.cfi_def_cfa_offset 16
	.cfi_offset 6, -16
	movq	%rsp, %rbp
	.cfi_def_cfa_register 6
	subq	$16, %rsp
	movq	%rdi, -8(%rbp)
	movq	-8(%rbp), %rax
	movq	%rax, %rdi
	call	_ZNK14QScopedPointerI10QBrushData24QBrushDataPointerDeleterEptEv@PLT
	movl	4(%rax), %eax
	leave
	.cfi_def_cfa 7, 8
	ret
	.cfi_endproc
.LFE8679:
	.size	_ZNK6QBrush5styleEv, .-_ZNK6QBrush5styleEv
	.section	.text._ZN7QWidget8setFocusEv,"axG",@progbits,_ZN7QWidget8setFocusEv,comdat
	.align 2
	.weak	_ZN7QWidget8setFocusEv
	.type	_ZN7QWidget8setFocusEv, @function
_ZN7QWidget8setFocusEv:
.LFB8893:
	.cfi_startproc
	endbr64
	pushq	%rbp
	.cfi_def_cfa_offset 16
	.cfi_offset 6, -16
	movq	%rsp, %rbp
	.cfi_def_cfa_register 6
	subq	$16, %rsp
	movq	%rdi, -8(%rbp)
	movq	-8(%rbp), %rax
	movl	$7, %esi
	movq	%rax, %rdi
	call	_ZN7QWidget8setFocusEN2Qt11FocusReasonE@PLT
	nop
	leave
	.cfi_def_cfa 7, 8
	ret
	.cfi_endproc
.LFE8893:
	.size	_ZN7QWidget8setFocusEv, .-_ZN7QWidget8setFocusEv
	.section	.text._ZNK7QWidget9isVisibleEv,"axG",@progbits,_ZNK7QWidget9isVisibleEv,comdat
	.align 2
	.weak	_ZNK7QWidget9isVisibleEv
	.type	_ZNK7QWidget9isVisibleEv, @function
_ZNK7QWidget9isVisibleEv:
.LFB8927:
	.cfi_startproc
	endbr64
	pushq	%rbp
	.cfi_def_cfa_offset 16
	.cfi_offset 6, -16
	movq	%rsp, %rbp
	.cfi_def_cfa_register 6
	subq	$16, %rsp
	movq	%rdi, -8(%rbp)
	movq	-8(%rbp), %rax
	movl	$15, %esi
	movq	%rax, %rdi
	call	_ZNK7QWidget13testAttributeEN2Qt15WidgetAttributeE@PLT
	leave
	.cfi_def_cfa 7, 8
	ret
	.cfi_endproc
.LFE8927:
	.size	_ZNK7QWidget9isVisibleEv, .-_ZNK7QWidget9isVisibleEv
	.section	.text._ZN7QWidget4moveEii,"axG",@progbits,_ZN7QWidget4moveEii,comdat
	.align 2
	.weak	_ZN7QWidget4moveEii
	.type	_ZN7QWidget4moveEii, @function
_ZN7QWidget4moveEii:
.LFB8929:
	.cfi_startproc
	endbr64
	pushq	%rbp
	.cfi_def_cfa_offset 16
	.cfi_offset 6, -16
	movq	%rsp, %rbp
	.cfi_def_cfa_register 6
	subq	$32, %rsp
	movq	%rdi, -24(%rbp)
	movl	%esi, -28(%rbp)
	movl	%edx, -32(%rbp)
	movq	%fs:40, %rax
	movq	%rax, -8(%rbp)
	xorl	%eax, %eax
	movl	-32(%rbp), %edx
	movl	-28(%rbp), %ecx
	leaq	-16(%rbp), %rax
	movl	%ecx, %esi
	movq	%rax, %rdi
	call	_ZN6QPointC1Eii@PLT
	leaq	-16(%rbp), %rdx
	movq	-24(%rbp), %rax
	movq	%rdx, %rsi
	movq	%rax, %rdi
	call	_ZN7QWidget4moveERK6QPoint@PLT
	nop
	movq	-8(%rbp), %rax
	subq	%fs:40, %rax
	je	.L211
	call	__stack_chk_fail@PLT
.L211:
	leave
	.cfi_def_cfa 7, 8
	ret
	.cfi_endproc
.LFE8929:
	.size	_ZN7QWidget4moveEii, .-_ZN7QWidget4moveEii
	.section	.text._ZNK7QWidget13testAttributeEN2Qt15WidgetAttributeE,"axG",@progbits,_ZNK7QWidget13testAttributeEN2Qt15WidgetAttributeE,comdat
	.align 2
	.weak	_ZNK7QWidget13testAttributeEN2Qt15WidgetAttributeE
	.type	_ZNK7QWidget13testAttributeEN2Qt15WidgetAttributeE, @function
_ZNK7QWidget13testAttributeEN2Qt15WidgetAttributeE:
.LFB8939:
	.cfi_startproc
	endbr64
	pushq	%rbp
	.cfi_def_cfa_offset 16
	.cfi_offset 6, -16
	movq	%rsp, %rbp
	.cfi_def_cfa_register 6
	subq	$16, %rsp
	movq	%rdi, -8(%rbp)
	movl	%esi, -12(%rbp)
	movl	-12(%rbp), %eax
	cmpl	$31, %eax
	jg	.L213
	movq	-8(%rbp), %rax
	movq	40(%rax), %rax
	movl	8(%rax), %edx
	movl	-12(%rbp), %eax
	movl	$1, %esi
	movl	%eax, %ecx
	sall	%cl, %esi
	movl	%esi, %eax
	andl	%edx, %eax
	testl	%eax, %eax
	setne	%al
	jmp	.L214
.L213:
	movl	-12(%rbp), %edx
	movq	-8(%rbp), %rax
	movl	%edx, %esi
	movq	%rax, %rdi
	call	_ZNK7QWidget20testAttribute_helperEN2Qt15WidgetAttributeE@PLT
	nop
.L214:
	leave
	.cfi_def_cfa 7, 8
	ret
	.cfi_endproc
.LFE8939:
	.size	_ZNK7QWidget13testAttributeEN2Qt15WidgetAttributeE, .-_ZNK7QWidget13testAttributeEN2Qt15WidgetAttributeE
	.section	.text._ZNK12QMapNodeBase5colorEv,"axG",@progbits,_ZNK12QMapNodeBase5colorEv,comdat
	.align 2
	.weak	_ZNK12QMapNodeBase5colorEv
	.type	_ZNK12QMapNodeBase5colorEv, @function
_ZNK12QMapNodeBase5colorEv:
.LFB8964:
	.cfi_startproc
	endbr64
	pushq	%rbp
	.cfi_def_cfa_offset 16
	.cfi_offset 6, -16
	movq	%rsp, %rbp
	.cfi_def_cfa_register 6
	movq	%rdi, -8(%rbp)
	movq	-8(%rbp), %rax
	movq	(%rax), %rax
	andl	$1, %eax
	popq	%rbp
	.cfi_def_cfa 7, 8
	ret
	.cfi_endproc
.LFE8964:
	.size	_ZNK12QMapNodeBase5colorEv, .-_ZNK12QMapNodeBase5colorEv
	.section	.text._ZN12QMapNodeBase8setColorENS_5ColorE,"axG",@progbits,_ZN12QMapNodeBase8setColorENS_5ColorE,comdat
	.align 2
	.weak	_ZN12QMapNodeBase8setColorENS_5ColorE
	.type	_ZN12QMapNodeBase8setColorENS_5ColorE, @function
_ZN12QMapNodeBase8setColorENS_5ColorE:
.LFB8965:
	.cfi_startproc
	endbr64
	pushq	%rbp
	.cfi_def_cfa_offset 16
	.cfi_offset 6, -16
	movq	%rsp, %rbp
	.cfi_def_cfa_register 6
	movq	%rdi, -8(%rbp)
	movl	%esi, -12(%rbp)
	cmpl	$1, -12(%rbp)
	jne	.L218
	movq	-8(%rbp), %rax
	movq	(%rax), %rax
	orq	$1, %rax
	movq	%rax, %rdx
	movq	-8(%rbp), %rax
	movq	%rdx, (%rax)
	jmp	.L220
.L218:
	movq	-8(%rbp), %rax
	movq	(%rax), %rax
	andq	$-2, %rax
	movq	%rax, %rdx
	movq	-8(%rbp), %rax
	movq	%rdx, (%rax)
.L220:
	nop
	popq	%rbp
	.cfi_def_cfa 7, 8
	ret
	.cfi_endproc
.LFE8965:
	.size	_ZN12QMapNodeBase8setColorENS_5ColorE, .-_ZN12QMapNodeBase8setColorENS_5ColorE
	.section	.text._ZN12QMapNodeBase9setParentEPS_,"axG",@progbits,_ZN12QMapNodeBase9setParentEPS_,comdat
	.align 2
	.weak	_ZN12QMapNodeBase9setParentEPS_
	.type	_ZN12QMapNodeBase9setParentEPS_, @function
_ZN12QMapNodeBase9setParentEPS_:
.LFB8967:
	.cfi_startproc
	endbr64
	pushq	%rbp
	.cfi_def_cfa_offset 16
	.cfi_offset 6, -16
	movq	%rsp, %rbp
	.cfi_def_cfa_register 6
	movq	%rdi, -8(%rbp)
	movq	%rsi, -16(%rbp)
	movq	-8(%rbp), %rax
	movq	(%rax), %rax
	andl	$3, %eax
	movq	%rax, %rdx
	movq	-16(%rbp), %rax
	orq	%rax, %rdx
	movq	-8(%rbp), %rax
	movq	%rdx, (%rax)
	nop
	popq	%rbp
	.cfi_def_cfa 7, 8
	ret
	.cfi_endproc
.LFE8967:
	.size	_ZN12QMapNodeBase9setParentEPS_, .-_ZN12QMapNodeBase9setParentEPS_
	.section	.text._ZN8QVariantC2Ev,"axG",@progbits,_ZN8QVariantC5Ev,comdat
	.align 2
	.weak	_ZN8QVariantC2Ev
	.type	_ZN8QVariantC2Ev, @function
_ZN8QVariantC2Ev:
.LFB9289:
	.cfi_startproc
	endbr64
	pushq	%rbp
	.cfi_def_cfa_offset 16
	.cfi_offset 6, -16
	movq	%rsp, %rbp
	.cfi_def_cfa_register 6
	subq	$16, %rsp
	movq	%rdi, -8(%rbp)
	movq	-8(%rbp), %rax
	movq	%rax, %rdi
	call	_ZN8QVariant7PrivateC1Ev@PLT
	nop
	leave
	.cfi_def_cfa 7, 8
	ret
	.cfi_endproc
.LFE9289:
	.size	_ZN8QVariantC2Ev, .-_ZN8QVariantC2Ev
	.weak	_ZN8QVariantC1Ev
	.set	_ZN8QVariantC1Ev,_ZN8QVariantC2Ev
	.section	.text._ZN8QVariant7PrivateC2Ev,"axG",@progbits,_ZN8QVariant7PrivateC5Ev,comdat
	.align 2
	.weak	_ZN8QVariant7PrivateC2Ev
	.type	_ZN8QVariant7PrivateC2Ev, @function
_ZN8QVariant7PrivateC2Ev:
.LFB9307:
	.cfi_startproc
	endbr64
	pushq	%rbp
	.cfi_def_cfa_offset 16
	.cfi_offset 6, -16
	movq	%rsp, %rbp
	.cfi_def_cfa_register 6
	movq	%rdi, -8(%rbp)
	movq	-8(%rbp), %rax
	movl	8(%rax), %edx
	andl	$-1073741824, %edx
	movl	%edx, 8(%rax)
	movq	-8(%rbp), %rax
	movzbl	11(%rax), %edx
	andl	$-65, %edx
	movb	%dl, 11(%rax)
	movq	-8(%rbp), %rax
	movzbl	11(%rax), %edx
	orl	$-128, %edx
	movb	%dl, 11(%rax)
	movq	-8(%rbp), %rax
	movq	$0, (%rax)
	nop
	popq	%rbp
	.cfi_def_cfa 7, 8
	ret
	.cfi_endproc
.LFE9307:
	.size	_ZN8QVariant7PrivateC2Ev, .-_ZN8QVariant7PrivateC2Ev
	.weak	_ZN8QVariant7PrivateC1Ev
	.set	_ZN8QVariant7PrivateC1Ev,_ZN8QVariant7PrivateC2Ev
	.section	.text._ZN15QListWidgetItem13setBackgroundERK6QBrush,"axG",@progbits,_ZN15QListWidgetItem13setBackgroundERK6QBrush,comdat
	.align 2
	.weak	_ZN15QListWidgetItem13setBackgroundERK6QBrush
	.type	_ZN15QListWidgetItem13setBackgroundERK6QBrush, @function
_ZN15QListWidgetItem13setBackgroundERK6QBrush:
.LFB10380:
	.cfi_startproc
	.cfi_personality 0x9b,DW.ref.__gxx_personality_v0
	.cfi_lsda 0x1b,.LLSDA10380
	endbr64
	pushq	%rbp
	.cfi_def_cfa_offset 16
	.cfi_offset 6, -16
	movq	%rsp, %rbp
	.cfi_def_cfa_register 6
	pushq	%rbx
	subq	$56, %rsp
	.cfi_offset 3, -24
	movq	%rdi, -56(%rbp)
	movq	%rsi, -64(%rbp)
	movq	%fs:40, %rax
	movq	%rax, -24(%rbp)
	xorl	%eax, %eax
	movq	-56(%rbp), %rax
	movq	(%rax), %rax
	addq	$40, %rax
	movq	(%rax), %rbx
	movq	-64(%rbp), %rax
	movq	%rax, %rdi
	call	_ZNK6QBrush5styleEv@PLT
	testl	%eax, %eax
	je	.L225
	leaq	-48(%rbp), %rax
	movq	-64(%rbp), %rdx
	movq	%rdx, %rsi
	movq	%rax, %rdi
.LEHB11:
	call	_ZNK6QBrushcv8QVariantEv@PLT
.LEHE11:
	jmp	.L226
.L225:
	leaq	-48(%rbp), %rax
	movq	%rax, %rdi
	call	_ZN8QVariantC1Ev@PLT
.L226:
	leaq	-48(%rbp), %rdx
	movq	-56(%rbp), %rax
	movl	$8, %esi
	movq	%rax, %rdi
.LEHB12:
	call	*%rbx
.LEHE12:
	leaq	-48(%rbp), %rax
	movq	%rax, %rdi
	call	_ZN8QVariantD1Ev@PLT
	nop
	movq	-24(%rbp), %rax
	subq	%fs:40, %rax
	je	.L229
	jmp	.L231
.L230:
	endbr64
	movq	%rax, %rbx
	leaq	-48(%rbp), %rax
	movq	%rax, %rdi
	call	_ZN8QVariantD1Ev@PLT
	movq	%rbx, %rax
	movq	-24(%rbp), %rdx
	subq	%fs:40, %rdx
	je	.L228
	call	__stack_chk_fail@PLT
.L228:
	movq	%rax, %rdi
.LEHB13:
	call	_Unwind_Resume@PLT
.LEHE13:
.L231:
	call	__stack_chk_fail@PLT
.L229:
	movq	-8(%rbp), %rbx
	leave
	.cfi_def_cfa 7, 8
	ret
	.cfi_endproc
.LFE10380:
	.section	.gcc_except_table._ZN15QListWidgetItem13setBackgroundERK6QBrush,"aG",@progbits,_ZN15QListWidgetItem13setBackgroundERK6QBrush,comdat
.LLSDA10380:
	.byte	0xff
	.byte	0xff
	.byte	0x1
	.uleb128 .LLSDACSE10380-.LLSDACSB10380
.LLSDACSB10380:
	.uleb128 .LEHB11-.LFB10380
	.uleb128 .LEHE11-.LEHB11
	.uleb128 0
	.uleb128 0
	.uleb128 .LEHB12-.LFB10380
	.uleb128 .LEHE12-.LEHB12
	.uleb128 .L230-.LFB10380
	.uleb128 0
	.uleb128 .LEHB13-.LFB10380
	.uleb128 .LEHE13-.LEHB13
	.uleb128 0
	.uleb128 0
.LLSDACSE10380:
	.section	.text._ZN15QListWidgetItem13setBackgroundERK6QBrush,"axG",@progbits,_ZN15QListWidgetItem13setBackgroundERK6QBrush,comdat
	.size	_ZN15QListWidgetItem13setBackgroundERK6QBrush, .-_ZN15QListWidgetItem13setBackgroundERK6QBrush
	.section	.text._ZN15QListWidgetItem13setForegroundERK6QBrush,"axG",@progbits,_ZN15QListWidgetItem13setForegroundERK6QBrush,comdat
	.align 2
	.weak	_ZN15QListWidgetItem13setForegroundERK6QBrush
	.type	_ZN15QListWidgetItem13setForegroundERK6QBrush, @function
_ZN15QListWidgetItem13setForegroundERK6QBrush:
.LFB10384:
	.cfi_startproc
	.cfi_personality 0x9b,DW.ref.__gxx_personality_v0
	.cfi_lsda 0x1b,.LLSDA10384
	endbr64
	pushq	%rbp
	.cfi_def_cfa_offset 16
	.cfi_offset 6, -16
	movq	%rsp, %rbp
	.cfi_def_cfa_register 6
	pushq	%rbx
	subq	$56, %rsp
	.cfi_offset 3, -24
	movq	%rdi, -56(%rbp)
	movq	%rsi, -64(%rbp)
	movq	%fs:40, %rax
	movq	%rax, -24(%rbp)
	xorl	%eax, %eax
	movq	-56(%rbp), %rax
	movq	(%rax), %rax
	addq	$40, %rax
	movq	(%rax), %rbx
	movq	-64(%rbp), %rax
	movq	%rax, %rdi
	call	_ZNK6QBrush5styleEv@PLT
	testl	%eax, %eax
	je	.L233
	leaq	-48(%rbp), %rax
	movq	-64(%rbp), %rdx
	movq	%rdx, %rsi
	movq	%rax, %rdi
.LEHB14:
	call	_ZNK6QBrushcv8QVariantEv@PLT
.LEHE14:
	jmp	.L234
.L233:
	leaq	-48(%rbp), %rax
	movq	%rax, %rdi
	call	_ZN8QVariantC1Ev@PLT
.L234:
	leaq	-48(%rbp), %rdx
	movq	-56(%rbp), %rax
	movl	$9, %esi
	movq	%rax, %rdi
.LEHB15:
	call	*%rbx
.LEHE15:
	leaq	-48(%rbp), %rax
	movq	%rax, %rdi
	call	_ZN8QVariantD1Ev@PLT
	nop
	movq	-24(%rbp), %rax
	subq	%fs:40, %rax
	je	.L237
	jmp	.L239
.L238:
	endbr64
	movq	%rax, %rbx
	leaq	-48(%rbp), %rax
	movq	%rax, %rdi
	call	_ZN8QVariantD1Ev@PLT
	movq	%rbx, %rax
	movq	-24(%rbp), %rdx
	subq	%fs:40, %rdx
	je	.L236
	call	__stack_chk_fail@PLT
.L236:
	movq	%rax, %rdi
.LEHB16:
	call	_Unwind_Resume@PLT
.LEHE16:
.L239:
	call	__stack_chk_fail@PLT
.L237:
	movq	-8(%rbp), %rbx
	leave
	.cfi_def_cfa 7, 8
	ret
	.cfi_endproc
.LFE10384:
	.section	.gcc_except_table._ZN15QListWidgetItem13setForegroundERK6QBrush,"aG",@progbits,_ZN15QListWidgetItem13setForegroundERK6QBrush,comdat
.LLSDA10384:
	.byte	0xff
	.byte	0xff
	.byte	0x1
	.uleb128 .LLSDACSE10384-.LLSDACSB10384
.LLSDACSB10384:
	.uleb128 .LEHB14-.LFB10384
	.uleb128 .LEHE14-.LEHB14
	.uleb128 0
	.uleb128 0
	.uleb128 .LEHB15-.LFB10384
	.uleb128 .LEHE15-.LEHB15
	.uleb128 .L238-.LFB10384
	.uleb128 0
	.uleb128 .LEHB16-.LFB10384
	.uleb128 .LEHE16-.LEHB16
	.uleb128 0
	.uleb128 0
.LLSDACSE10384:
	.section	.text._ZN15QListWidgetItem13setForegroundERK6QBrush,"axG",@progbits,_ZN15QListWidgetItem13setForegroundERK6QBrush,comdat
	.size	_ZN15QListWidgetItem13setForegroundERK6QBrush, .-_ZN15QListWidgetItem13setForegroundERK6QBrush
	.section	.text._ZN15QListWidgetItem11setSizeHintERK5QSize,"axG",@progbits,_ZN15QListWidgetItem11setSizeHintERK5QSize,comdat
	.align 2
	.weak	_ZN15QListWidgetItem11setSizeHintERK5QSize
	.type	_ZN15QListWidgetItem11setSizeHintERK5QSize, @function
_ZN15QListWidgetItem11setSizeHintERK5QSize:
.LFB10388:
	.cfi_startproc
	.cfi_personality 0x9b,DW.ref.__gxx_personality_v0
	.cfi_lsda 0x1b,.LLSDA10388
	endbr64
	pushq	%rbp
	.cfi_def_cfa_offset 16
	.cfi_offset 6, -16
	movq	%rsp, %rbp
	.cfi_def_cfa_register 6
	pushq	%rbx
	subq	$56, %rsp
	.cfi_offset 3, -24
	movq	%rdi, -56(%rbp)
	movq	%rsi, -64(%rbp)
	movq	%fs:40, %rax
	movq	%rax, -24(%rbp)
	xorl	%eax, %eax
	movq	-56(%rbp), %rax
	movq	(%rax), %rax
	addq	$40, %rax
	movq	(%rax), %rbx
	movq	-64(%rbp), %rax
	movq	%rax, %rdi
	call	_ZNK5QSize7isValidEv@PLT
	testb	%al, %al
	je	.L241
	movq	-64(%rbp), %rdx
	leaq	-48(%rbp), %rax
	movq	%rdx, %rsi
	movq	%rax, %rdi
.LEHB17:
	call	_ZN8QVariantC1ERK5QSize@PLT
.LEHE17:
	jmp	.L242
.L241:
	leaq	-48(%rbp), %rax
	movq	%rax, %rdi
	call	_ZN8QVariantC1Ev@PLT
.L242:
	leaq	-48(%rbp), %rdx
	movq	-56(%rbp), %rax
	movl	$13, %esi
	movq	%rax, %rdi
.LEHB18:
	call	*%rbx
.LEHE18:
	leaq	-48(%rbp), %rax
	movq	%rax, %rdi
	call	_ZN8QVariantD1Ev@PLT
	nop
	movq	-24(%rbp), %rax
	subq	%fs:40, %rax
	je	.L245
	jmp	.L247
.L246:
	endbr64
	movq	%rax, %rbx
	leaq	-48(%rbp), %rax
	movq	%rax, %rdi
	call	_ZN8QVariantD1Ev@PLT
	movq	%rbx, %rax
	movq	-24(%rbp), %rdx
	subq	%fs:40, %rdx
	je	.L244
	call	__stack_chk_fail@PLT
.L244:
	movq	%rax, %rdi
.LEHB19:
	call	_Unwind_Resume@PLT
.LEHE19:
.L247:
	call	__stack_chk_fail@PLT
.L245:
	movq	-8(%rbp), %rbx
	leave
	.cfi_def_cfa 7, 8
	ret
	.cfi_endproc
.LFE10388:
	.section	.gcc_except_table._ZN15QListWidgetItem11setSizeHintERK5QSize,"aG",@progbits,_ZN15QListWidgetItem11setSizeHintERK5QSize,comdat
.LLSDA10388:
	.byte	0xff
	.byte	0xff
	.byte	0x1
	.uleb128 .LLSDACSE10388-.LLSDACSB10388
.LLSDACSB10388:
	.uleb128 .LEHB17-.LFB10388
	.uleb128 .LEHE17-.LEHB17
	.uleb128 0
	.uleb128 0
	.uleb128 .LEHB18-.LFB10388
	.uleb128 .LEHE18-.LEHB18
	.uleb128 .L246-.LFB10388
	.uleb128 0
	.uleb128 .LEHB19-.LFB10388
	.uleb128 .LEHE19-.LEHB19
	.uleb128 0
	.uleb128 0
.LLSDACSE10388:
	.section	.text._ZN15QListWidgetItem11setSizeHintERK5QSize,"axG",@progbits,_ZN15QListWidgetItem11setSizeHintERK5QSize,comdat
	.size	_ZN15QListWidgetItem11setSizeHintERK5QSize, .-_ZN15QListWidgetItem11setSizeHintERK5QSize
	.section	.text._ZN15QListWidgetItem7setTextERK7QString,"axG",@progbits,_ZN15QListWidgetItem7setTextERK7QString,comdat
	.align 2
	.weak	_ZN15QListWidgetItem7setTextERK7QString
	.type	_ZN15QListWidgetItem7setTextERK7QString, @function
_ZN15QListWidgetItem7setTextERK7QString:
.LFB10390:
	.cfi_startproc
	.cfi_personality 0x9b,DW.ref.__gxx_personality_v0
	.cfi_lsda 0x1b,.LLSDA10390
	endbr64
	pushq	%rbp
	.cfi_def_cfa_offset 16
	.cfi_offset 6, -16
	movq	%rsp, %rbp
	.cfi_def_cfa_register 6
	pushq	%rbx
	subq	$56, %rsp
	.cfi_offset 3, -24
	movq	%rdi, -56(%rbp)
	movq	%rsi, -64(%rbp)
	movq	%fs:40, %rax
	movq	%rax, -24(%rbp)
	xorl	%eax, %eax
	movq	-56(%rbp), %rax
	movq	(%rax), %rax
	addq	$40, %rax
	movq	(%rax), %rbx
	movq	-64(%rbp), %rdx
	leaq	-48(%rbp), %rax
	movq	%rdx, %rsi
	movq	%rax, %rdi
.LEHB20:
	call	_ZN8QVariantC1ERK7QString@PLT
.LEHE20:
	leaq	-48(%rbp), %rdx
	movq	-56(%rbp), %rax
	movl	$0, %esi
	movq	%rax, %rdi
.LEHB21:
	call	*%rbx
.LEHE21:
	leaq	-48(%rbp), %rax
	movq	%rax, %rdi
	call	_ZN8QVariantD1Ev@PLT
	nop
	movq	-24(%rbp), %rax
	subq	%fs:40, %rax
	je	.L251
	jmp	.L253
.L252:
	endbr64
	movq	%rax, %rbx
	leaq	-48(%rbp), %rax
	movq	%rax, %rdi
	call	_ZN8QVariantD1Ev@PLT
	movq	%rbx, %rax
	movq	-24(%rbp), %rdx
	subq	%fs:40, %rdx
	je	.L250
	call	__stack_chk_fail@PLT
.L250:
	movq	%rax, %rdi
.LEHB22:
	call	_Unwind_Resume@PLT
.LEHE22:
.L253:
	call	__stack_chk_fail@PLT
.L251:
	movq	-8(%rbp), %rbx
	leave
	.cfi_def_cfa 7, 8
	ret
	.cfi_endproc
.LFE10390:
	.section	.gcc_except_table._ZN15QListWidgetItem7setTextERK7QString,"aG",@progbits,_ZN15QListWidgetItem7setTextERK7QString,comdat
.LLSDA10390:
	.byte	0xff
	.byte	0xff
	.byte	0x1
	.uleb128 .LLSDACSE10390-.LLSDACSB10390
.LLSDACSB10390:
	.uleb128 .LEHB20-.LFB10390
	.uleb128 .LEHE20-.LEHB20
	.uleb128 0
	.uleb128 0
	.uleb128 .LEHB21-.LFB10390
	.uleb128 .LEHE21-.LEHB21
	.uleb128 .L252-.LFB10390
	.uleb128 0
	.uleb128 .LEHB22-.LFB10390
	.uleb128 .LEHE22-.LEHB22
	.uleb128 0
	.uleb128 0
.LLSDACSE10390:
	.section	.text._ZN15QListWidgetItem7setTextERK7QString,"axG",@progbits,_ZN15QListWidgetItem7setTextERK7QString,comdat
	.size	_ZN15QListWidgetItem7setTextERK7QString, .-_ZN15QListWidgetItem7setTextERK7QString
	.section	.text._ZN15QListWidgetItem7setIconERK5QIcon,"axG",@progbits,_ZN15QListWidgetItem7setIconERK5QIcon,comdat
	.align 2
	.weak	_ZN15QListWidgetItem7setIconERK5QIcon
	.type	_ZN15QListWidgetItem7setIconERK5QIcon, @function
_ZN15QListWidgetItem7setIconERK5QIcon:
.LFB10391:
	.cfi_startproc
	.cfi_personality 0x9b,DW.ref.__gxx_personality_v0
	.cfi_lsda 0x1b,.LLSDA10391
	endbr64
	pushq	%rbp
	.cfi_def_cfa_offset 16
	.cfi_offset 6, -16
	movq	%rsp, %rbp
	.cfi_def_cfa_register 6
	pushq	%rbx
	subq	$56, %rsp
	.cfi_offset 3, -24
	movq	%rdi, -56(%rbp)
	movq	%rsi, -64(%rbp)
	movq	%fs:40, %rax
	movq	%rax, -24(%rbp)
	xorl	%eax, %eax
	movq	-56(%rbp), %rax
	movq	(%rax), %rax
	addq	$40, %rax
	movq	(%rax), %rbx
	leaq	-48(%rbp), %rax
	movq	-64(%rbp), %rdx
	movq	%rdx, %rsi
	movq	%rax, %rdi
.LEHB23:
	call	_ZNK5QIconcv8QVariantEv@PLT
.LEHE23:
	leaq	-48(%rbp), %rdx
	movq	-56(%rbp), %rax
	movl	$1, %esi
	movq	%rax, %rdi
.LEHB24:
	call	*%rbx
.LEHE24:
	leaq	-48(%rbp), %rax
	movq	%rax, %rdi
	call	_ZN8QVariantD1Ev@PLT
	nop
	movq	-24(%rbp), %rax
	subq	%fs:40, %rax
	je	.L257
	jmp	.L259
.L258:
	endbr64
	movq	%rax, %rbx
	leaq	-48(%rbp), %rax
	movq	%rax, %rdi
	call	_ZN8QVariantD1Ev@PLT
	movq	%rbx, %rax
	movq	-24(%rbp), %rdx
	subq	%fs:40, %rdx
	je	.L256
	call	__stack_chk_fail@PLT
.L256:
	movq	%rax, %rdi
.LEHB25:
	call	_Unwind_Resume@PLT
.LEHE25:
.L259:
	call	__stack_chk_fail@PLT
.L257:
	movq	-8(%rbp), %rbx
	leave
	.cfi_def_cfa 7, 8
	ret
	.cfi_endproc
.LFE10391:
	.section	.gcc_except_table._ZN15QListWidgetItem7setIconERK5QIcon,"aG",@progbits,_ZN15QListWidgetItem7setIconERK5QIcon,comdat
.LLSDA10391:
	.byte	0xff
	.byte	0xff
	.byte	0x1
	.uleb128 .LLSDACSE10391-.LLSDACSB10391
.LLSDACSB10391:
	.uleb128 .LEHB23-.LFB10391
	.uleb128 .LEHE23-.LEHB23
	.uleb128 0
	.uleb128 0
	.uleb128 .LEHB24-.LFB10391
	.uleb128 .LEHE24-.LEHB24
	.uleb128 .L258-.LFB10391
	.uleb128 0
	.uleb128 .LEHB25-.LFB10391
	.uleb128 .LEHE25-.LEHB25
	.uleb128 0
	.uleb128 0
.LLSDACSE10391:
	.section	.text._ZN15QListWidgetItem7setIconERK5QIcon,"axG",@progbits,_ZN15QListWidgetItem7setIconERK5QIcon,comdat
	.size	_ZN15QListWidgetItem7setIconERK5QIcon, .-_ZN15QListWidgetItem7setIconERK5QIcon
	.section	.text._ZN11QListWidget7addItemEP15QListWidgetItem,"axG",@progbits,_ZN11QListWidget7addItemEP15QListWidgetItem,comdat
	.align 2
	.weak	_ZN11QListWidget7addItemEP15QListWidgetItem
	.type	_ZN11QListWidget7addItemEP15QListWidgetItem, @function
_ZN11QListWidget7addItemEP15QListWidgetItem:
.LFB10403:
	.cfi_startproc
	endbr64
	pushq	%rbp
	.cfi_def_cfa_offset 16
	.cfi_offset 6, -16
	movq	%rsp, %rbp
	.cfi_def_cfa_register 6
	subq	$16, %rsp
	movq	%rdi, -8(%rbp)
	movq	%rsi, -16(%rbp)
	movq	-8(%rbp), %rax
	movq	%rax, %rdi
	call	_ZNK11QListWidget5countEv@PLT
	movl	%eax, %ecx
	movq	-16(%rbp), %rdx
	movq	-8(%rbp), %rax
	movl	%ecx, %esi
	movq	%rax, %rdi
	call	_ZN11QListWidget10insertItemEiP15QListWidgetItem@PLT
	nop
	leave
	.cfi_def_cfa 7, 8
	ret
	.cfi_endproc
.LFE10403:
	.size	_ZN11QListWidget7addItemEP15QListWidgetItem, .-_ZN11QListWidget7addItemEP15QListWidgetItem
	.section	.rodata
	.align 4
	.type	_ZL15QLAYOUTSIZE_MAX, @object
	.size	_ZL15QLAYOUTSIZE_MAX, 4
_ZL15QLAYOUTSIZE_MAX:
	.long	524287
	.section	.text._ZN6QDebug10maybeSpaceEv,"axG",@progbits,_ZN6QDebug10maybeSpaceEv,comdat
	.align 2
	.weak	_ZN6QDebug10maybeSpaceEv
	.type	_ZN6QDebug10maybeSpaceEv, @function
_ZN6QDebug10maybeSpaceEv:
.LFB10587:
	.cfi_startproc
	endbr64
	pushq	%rbp
	.cfi_def_cfa_offset 16
	.cfi_offset 6, -16
	movq	%rsp, %rbp
	.cfi_def_cfa_register 6
	subq	$16, %rsp
	movq	%rdi, -8(%rbp)
	movq	-8(%rbp), %rax
	movq	(%rax), %rax
	movzbl	32(%rax), %eax
	testb	%al, %al
	je	.L262
	movq	-8(%rbp), %rax
	movq	(%rax), %rax
	movl	$32, %esi
	movq	%rax, %rdi
	call	_ZN11QTextStreamlsEc@PLT
.L262:
	movq	-8(%rbp), %rax
	leave
	.cfi_def_cfa 7, 8
	ret
	.cfi_endproc
.LFE10587:
	.size	_ZN6QDebug10maybeSpaceEv, .-_ZN6QDebug10maybeSpaceEv
	.section	.text._ZN6QDebuglsEi,"axG",@progbits,_ZN6QDebuglsEi,comdat
	.align 2
	.weak	_ZN6QDebuglsEi
	.type	_ZN6QDebuglsEi, @function
_ZN6QDebuglsEi:
.LFB10603:
	.cfi_startproc
	endbr64
	pushq	%rbp
	.cfi_def_cfa_offset 16
	.cfi_offset 6, -16
	movq	%rsp, %rbp
	.cfi_def_cfa_register 6
	subq	$16, %rsp
	movq	%rdi, -8(%rbp)
	movl	%esi, -12(%rbp)
	movq	-8(%rbp), %rax
	movq	(%rax), %rax
	movq	%rax, %rdx
	movl	-12(%rbp), %eax
	movl	%eax, %esi
	movq	%rdx, %rdi
	call	_ZN11QTextStreamlsEi@PLT
	movq	-8(%rbp), %rax
	movq	%rax, %rdi
	call	_ZN6QDebug10maybeSpaceEv@PLT
	leave
	.cfi_def_cfa 7, 8
	ret
	.cfi_endproc
.LFE10603:
	.size	_ZN6QDebuglsEi, .-_ZN6QDebuglsEi
	.section	.text._ZN6QDebuglsEPKc,"axG",@progbits,_ZN6QDebuglsEPKc,comdat
	.align 2
	.weak	_ZN6QDebuglsEPKc
	.type	_ZN6QDebuglsEPKc, @function
_ZN6QDebuglsEPKc:
.LFB10611:
	.cfi_startproc
	.cfi_personality 0x9b,DW.ref.__gxx_personality_v0
	.cfi_lsda 0x1b,.LLSDA10611
	endbr64
	pushq	%rbp
	.cfi_def_cfa_offset 16
	.cfi_offset 6, -16
	movq	%rsp, %rbp
	.cfi_def_cfa_register 6
	pushq	%rbx
	subq	$40, %rsp
	.cfi_offset 3, -24
	movq	%rdi, -40(%rbp)
	movq	%rsi, -48(%rbp)
	movq	%fs:40, %rax
	movq	%rax, -24(%rbp)
	xorl	%eax, %eax
	movq	-40(%rbp), %rax
	movq	(%rax), %rax
	movq	%rax, %rbx
	leaq	-32(%rbp), %rax
	movq	-48(%rbp), %rcx
	movl	$-1, %edx
	movq	%rcx, %rsi
	movq	%rax, %rdi
.LEHB26:
	call	_ZN7QString8fromUtf8EPKci@PLT
.LEHE26:
	leaq	-32(%rbp), %rax
	movq	%rax, %rsi
	movq	%rbx, %rdi
.LEHB27:
	call	_ZN11QTextStreamlsERK7QString@PLT
.LEHE27:
	leaq	-32(%rbp), %rax
	movq	%rax, %rdi
	call	_ZN7QStringD1Ev@PLT
	movq	-40(%rbp), %rax
	movq	%rax, %rdi
.LEHB28:
	call	_ZN6QDebug10maybeSpaceEv@PLT
	movq	-24(%rbp), %rdx
	subq	%fs:40, %rdx
	je	.L270
	jmp	.L272
.L271:
	endbr64
	movq	%rax, %rbx
	leaq	-32(%rbp), %rax
	movq	%rax, %rdi
	call	_ZN7QStringD1Ev@PLT
	movq	%rbx, %rax
	movq	-24(%rbp), %rdx
	subq	%fs:40, %rdx
	je	.L269
	call	__stack_chk_fail@PLT
.L269:
	movq	%rax, %rdi
	call	_Unwind_Resume@PLT
.LEHE28:
.L272:
	call	__stack_chk_fail@PLT
.L270:
	movq	-8(%rbp), %rbx
	leave
	.cfi_def_cfa 7, 8
	ret
	.cfi_endproc
.LFE10611:
	.section	.gcc_except_table._ZN6QDebuglsEPKc,"aG",@progbits,_ZN6QDebuglsEPKc,comdat
.LLSDA10611:
	.byte	0xff
	.byte	0xff
	.byte	0x1
	.uleb128 .LLSDACSE10611-.LLSDACSB10611
.LLSDACSB10611:
	.uleb128 .LEHB26-.LFB10611
	.uleb128 .LEHE26-.LEHB26
	.uleb128 0
	.uleb128 0
	.uleb128 .LEHB27-.LFB10611
	.uleb128 .LEHE27-.LEHB27
	.uleb128 .L271-.LFB10611
	.uleb128 0
	.uleb128 .LEHB28-.LFB10611
	.uleb128 .LEHE28-.LEHB28
	.uleb128 0
	.uleb128 0
.LLSDACSE10611:
	.section	.text._ZN6QDebuglsEPKc,"axG",@progbits,_ZN6QDebuglsEPKc,comdat
	.size	_ZN6QDebuglsEPKc, .-_ZN6QDebuglsEPKc
	.section	.text._ZorN11QMessageBox14StandardButtonES0_,"axG",@progbits,_ZorN11QMessageBox14StandardButtonES0_,comdat
	.weak	_ZorN11QMessageBox14StandardButtonES0_
	.type	_ZorN11QMessageBox14StandardButtonES0_, @function
_ZorN11QMessageBox14StandardButtonES0_:
.LFB10709:
	.cfi_startproc
	endbr64
	pushq	%rbp
	.cfi_def_cfa_offset 16
	.cfi_offset 6, -16
	movq	%rsp, %rbp
	.cfi_def_cfa_register 6
	subq	$32, %rsp
	movl	%edi, -20(%rbp)
	movl	%esi, -24(%rbp)
	movq	%fs:40, %rax
	movq	%rax, -8(%rbp)
	xorl	%eax, %eax
	movl	-20(%rbp), %edx
	leaq	-12(%rbp), %rax
	movl	%edx, %esi
	movq	%rax, %rdi
	call	_ZN6QFlagsIN11QMessageBox14StandardButtonEEC1ES1_@PLT
	movl	-24(%rbp), %edx
	leaq	-12(%rbp), %rax
	movl	%edx, %esi
	movq	%rax, %rdi
	call	_ZNK6QFlagsIN11QMessageBox14StandardButtonEEorES1_@PLT
	movq	-8(%rbp), %rdx
	subq	%fs:40, %rdx
	je	.L275
	call	__stack_chk_fail@PLT
.L275:
	leave
	.cfi_def_cfa 7, 8
	ret
	.cfi_endproc
.LFE10709:
	.size	_ZorN11QMessageBox14StandardButtonES0_, .-_ZorN11QMessageBox14StandardButtonES0_
	.section	.text._ZN6QTimer14defaultTypeForEi,"axG",@progbits,_ZN6QTimer14defaultTypeForEi,comdat
	.weak	_ZN6QTimer14defaultTypeForEi
	.type	_ZN6QTimer14defaultTypeForEi, @function
_ZN6QTimer14defaultTypeForEi:
.LFB10831:
	.cfi_startproc
	endbr64
	pushq	%rbp
	.cfi_def_cfa_offset 16
	.cfi_offset 6, -16
	movq	%rsp, %rbp
	.cfi_def_cfa_register 6
	movl	%edi, -4(%rbp)
	cmpl	$1999, -4(%rbp)
	jle	.L277
	movl	$1, %eax
	jmp	.L279
.L277:
	movl	$0, %eax
.L279:
	popq	%rbp
	.cfi_def_cfa 7, 8
	ret
	.cfi_endproc
.LFE10831:
	.size	_ZN6QTimer14defaultTypeForEi, .-_ZN6QTimer14defaultTypeForEi
	.section	.rodata
	.align 8
.LC4:
	.string	"color: %1; font-weight: bold; font-size: 14px;"
.LC5:
	.string	"#075E54"
.LC6:
	.string	"#128C7E"
	.align 8
.LC7:
	.string	"color: #1a1a1a; font-size: 15px;"
.LC8:
	.string	"color: #888; font-size: 11px;"
.LC9:
	.string	""
	.align 8
.LC10:
	.string	"color: #34B7F1; font-size: 11px;"
	.align 8
.LC11:
	.string	"background-color: #DCF8C6; border-radius: 18px; border-top-right-radius: 5px;"
	.align 8
.LC12:
	.string	"background-color: #E8E8E8; border-radius: 18px; border-top-left-radius: 5px;"
	.text
	.align 2
	.globl	_ZN13MessageBubbleC2ERK7QStringS2_S2_bP7QWidget
	.type	_ZN13MessageBubbleC2ERK7QStringS2_S2_bP7QWidget, @function
_ZN13MessageBubbleC2ERK7QStringS2_S2_bP7QWidget:
.LFB10876:
	.cfi_startproc
	.cfi_personality 0x9b,DW.ref.__gxx_personality_v0
	.cfi_lsda 0x1b,.LLSDA10876
	endbr64
	pushq	%rbp
	.cfi_def_cfa_offset 16
	.cfi_offset 6, -16
	movq	%rsp, %rbp
	.cfi_def_cfa_register 6
	pushq	%r13
	pushq	%r12
	pushq	%rbx
	subq	$152, %rsp
	.cfi_offset 13, -24
	.cfi_offset 12, -32
	.cfi_offset 3, -40
	movq	%rdi, -136(%rbp)
	movq	%rsi, -144(%rbp)
	movq	%rdx, -152(%rbp)
	movq	%rcx, -160(%rbp)
	movl	%r8d, %eax
	movq	%r9, -176(%rbp)
	movb	%al, -164(%rbp)
	movq	%fs:40, %rax
	movq	%rax, -40(%rbp)
	xorl	%eax, %eax
	movq	-136(%rbp), %rbx
	leaq	-96(%rbp), %rax
	movq	%rax, %rdi
	call	_ZN6QFlagsIN2Qt10WindowTypeEEC1Ev@PLT
	movl	-96(%rbp), %edx
	movq	-176(%rbp), %rax
	movq	%rax, %rsi
	movq	%rbx, %rdi
.LEHB29:
	call	_ZN7QWidgetC2EPS_6QFlagsIN2Qt10WindowTypeEE@PLT
.LEHE29:
	movq	_ZTV13MessageBubble@GOTPCREL(%rip), %rax
	leaq	16(%rax), %rdx
	movq	-136(%rbp), %rax
	movq	%rdx, (%rax)
	movq	_ZTV13MessageBubble@GOTPCREL(%rip), %rax
	leaq	448(%rax), %rdx
	movq	-136(%rbp), %rax
	movq	%rdx, 16(%rax)
	movq	-136(%rbp), %rax
	movzbl	-164(%rbp), %edx
	movb	%dl, 48(%rax)
	movq	-136(%rbp), %rax
	movq	$0, 56(%rax)
	movl	$32, %edi
.LEHB30:
	call	_Znwm@PLT
.LEHE30:
	movq	%rax, %rbx
	movl	$1, %r13d
	movq	-136(%rbp), %rax
	movq	%rax, %rsi
	movq	%rbx, %rdi
.LEHB31:
	call	_ZN11QHBoxLayoutC1EP7QWidget@PLT
.LEHE31:
	movq	%rbx, -88(%rbp)
	movq	-88(%rbp), %rax
	movl	$5, %r8d
	movl	$10, %ecx
	movl	$5, %edx
	movl	$10, %esi
	movq	%rax, %rdi
.LEHB32:
	call	_ZN7QLayout18setContentsMarginsEiiii@PLT
	movl	$48, %edi
	call	_Znwm@PLT
.LEHE32:
	movq	%rax, %rbx
	movl	$1, %r13d
	leaq	-96(%rbp), %rax
	movq	%rax, %rdi
	call	_ZN6QFlagsIN2Qt10WindowTypeEEC1Ev@PLT
	movl	-96(%rbp), %eax
	movl	%eax, %edx
	movl	$0, %esi
	movq	%rbx, %rdi
.LEHB33:
	call	_ZN7QWidgetC1EPS_6QFlagsIN2Qt10WindowTypeEE@PLT
.LEHE33:
	movq	%rbx, -80(%rbp)
	movl	$32, %edi
.LEHB34:
	call	_Znwm@PLT
.LEHE34:
	movq	%rax, %rbx
	movl	$1, %r13d
	movq	-80(%rbp), %rax
	movq	%rax, %rsi
	movq	%rbx, %rdi
.LEHB35:
	call	_ZN11QVBoxLayoutC1EP7QWidget@PLT
.LEHE35:
	movq	%rbx, -72(%rbp)
	movq	-72(%rbp), %rax
	movl	$10, %r8d
	movl	$14, %ecx
	movl	$10, %edx
	movl	$14, %esi
	movq	%rax, %rdi
.LEHB36:
	call	_ZN7QLayout18setContentsMarginsEiiii@PLT
	movq	-72(%rbp), %rax
	movl	$4, %esi
	movq	%rax, %rdi
	call	_ZN10QBoxLayout10setSpacingEi@PLT
	movl	$48, %edi
	call	_Znwm@PLT
.LEHE36:
	movq	%rax, %rbx
	movl	$1, %r13d
	leaq	-96(%rbp), %rax
	movq	%rax, %rdi
	call	_ZN6QFlagsIN2Qt10WindowTypeEEC1Ev@PLT
	movl	-96(%rbp), %edx
	movq	-144(%rbp), %rax
	movl	%edx, %ecx
	movl	$0, %edx
	movq	%rax, %rsi
	movq	%rbx, %rdi
.LEHB37:
	call	_ZN6QLabelC1ERK7QStringP7QWidget6QFlagsIN2Qt10WindowTypeEE@PLT
.LEHE37:
	movq	%rbx, -64(%rbp)
	movq	-64(%rbp), %rbx
	leaq	-104(%rbp), %rax
	leaq	.LC4(%rip), %rdx
	movq	%rdx, %rsi
	movq	%rax, %rdi
.LEHB38:
	call	_ZN7QStringC1EPKc@PLT
.LEHE38:
	leaq	-115(%rbp), %rax
	movl	$32, %esi
	movq	%rax, %rdi
	call	_ZN11QLatin1CharC1Ec@PLT
	movzbl	-115(%rbp), %edx
	leaq	-114(%rbp), %rax
	movl	%edx, %esi
	movq	%rax, %rdi
	call	_ZN5QCharC1E11QLatin1Char@PLT
	cmpb	$0, -164(%rbp)
	je	.L281
	leaq	.LC5(%rip), %rax
	jmp	.L282
.L281:
	leaq	.LC6(%rip), %rax
.L282:
	leaq	-96(%rbp), %rdx
	movq	%rax, %rsi
	movq	%rdx, %rdi
.LEHB39:
	call	_ZN7QStringC1EPKc@PLT
.LEHE39:
	leaq	-112(%rbp), %rax
	movzwl	-114(%rbp), %ecx
	leaq	-96(%rbp), %rdx
	leaq	-104(%rbp), %rsi
	movl	%ecx, %r8d
	movl	$0, %ecx
	movq	%rax, %rdi
.LEHB40:
	call	_ZNK7QString3argERKS_i5QChar@PLT
.LEHE40:
	leaq	-112(%rbp), %rax
	movq	%rax, %rsi
	movq	%rbx, %rdi
.LEHB41:
	call	_ZN7QWidget13setStyleSheetERK7QString@PLT
.LEHE41:
	leaq	-112(%rbp), %rax
	movq	%rax, %rdi
	call	_ZN7QStringD1Ev@PLT
	leaq	-96(%rbp), %rax
	movq	%rax, %rdi
	call	_ZN7QStringD1Ev@PLT
	leaq	-104(%rbp), %rax
	movq	%rax, %rdi
	call	_ZN7QStringD1Ev@PLT
	movl	$48, %edi
.LEHB42:
	call	_Znwm@PLT
.LEHE42:
	movq	%rax, %rbx
	movl	$1, %r13d
	leaq	-96(%rbp), %rax
	movq	%rax, %rdi
	call	_ZN6QFlagsIN2Qt10WindowTypeEEC1Ev@PLT
	movl	-96(%rbp), %edx
	movq	-152(%rbp), %rax
	movl	%edx, %ecx
	movl	$0, %edx
	movq	%rax, %rsi
	movq	%rbx, %rdi
.LEHB43:
	call	_ZN6QLabelC1ERK7QStringP7QWidget6QFlagsIN2Qt10WindowTypeEE@PLT
.LEHE43:
	movq	%rbx, -56(%rbp)
	movq	-56(%rbp), %rax
	movl	$1, %esi
	movq	%rax, %rdi
.LEHB44:
	call	_ZN6QLabel11setWordWrapEb@PLT
	movq	-56(%rbp), %rbx
	leaq	-96(%rbp), %rax
	leaq	.LC7(%rip), %rdx
	movq	%rdx, %rsi
	movq	%rax, %rdi
	call	_ZN7QStringC1EPKc@PLT
.LEHE44:
	leaq	-96(%rbp), %rax
	movq	%rax, %rsi
	movq	%rbx, %rdi
.LEHB45:
	call	_ZN7QWidget13setStyleSheetERK7QString@PLT
.LEHE45:
	leaq	-96(%rbp), %rax
	movq	%rax, %rdi
	call	_ZN7QStringD1Ev@PLT
	movq	-56(%rbp), %rbx
	leaq	-96(%rbp), %rax
	movl	$1, %esi
	movq	%rax, %rdi
	call	_ZN6QFlagsIN2Qt19TextInteractionFlagEEC1ES1_@PLT
	movl	-96(%rbp), %eax
	movl	%eax, %esi
	movq	%rbx, %rdi
.LEHB46:
	call	_ZN6QLabel23setTextInteractionFlagsE6QFlagsIN2Qt19TextInteractionFlagEE@PLT
	movl	$48, %edi
	call	_Znwm@PLT
.LEHE46:
	movq	%rax, %rbx
	movl	$1, %r13d
	leaq	-96(%rbp), %rax
	movq	%rax, %rdi
	call	_ZN6QFlagsIN2Qt10WindowTypeEEC1Ev@PLT
	movl	-96(%rbp), %edx
	movq	-160(%rbp), %rax
	movl	%edx, %ecx
	movl	$0, %edx
	movq	%rax, %rsi
	movq	%rbx, %rdi
.LEHB47:
	call	_ZN6QLabelC1ERK7QStringP7QWidget6QFlagsIN2Qt10WindowTypeEE@PLT
.LEHE47:
	movq	%rbx, -48(%rbp)
	movq	-48(%rbp), %rbx
	leaq	-96(%rbp), %rax
	leaq	.LC8(%rip), %rdx
	movq	%rdx, %rsi
	movq	%rax, %rdi
.LEHB48:
	call	_ZN7QStringC1EPKc@PLT
.LEHE48:
	leaq	-96(%rbp), %rax
	movq	%rax, %rsi
	movq	%rbx, %rdi
.LEHB49:
	call	_ZN7QWidget13setStyleSheetERK7QString@PLT
.LEHE49:
	leaq	-96(%rbp), %rax
	movq	%rax, %rdi
	call	_ZN7QStringD1Ev@PLT
	movq	-48(%rbp), %rbx
	cmpb	$0, -164(%rbp)
	je	.L283
	movl	$2, %edx
	jmp	.L284
.L283:
	movl	$1, %edx
.L284:
	leaq	-96(%rbp), %rax
	movl	%edx, %esi
	movq	%rax, %rdi
	call	_ZN6QFlagsIN2Qt13AlignmentFlagEEC1ES1_@PLT
	movl	-96(%rbp), %eax
	movl	%eax, %esi
	movq	%rbx, %rdi
.LEHB50:
	call	_ZN6QLabel12setAlignmentE6QFlagsIN2Qt13AlignmentFlagEE@PLT
	movq	-72(%rbp), %rbx
	leaq	-96(%rbp), %rax
	movq	%rax, %rdi
	call	_ZN6QFlagsIN2Qt13AlignmentFlagEEC1Ev@PLT
	movl	-96(%rbp), %edx
	movq	-64(%rbp), %rax
	movl	%edx, %ecx
	movl	$0, %edx
	movq	%rax, %rsi
	movq	%rbx, %rdi
	call	_ZN10QBoxLayout9addWidgetEP7QWidgeti6QFlagsIN2Qt13AlignmentFlagEE@PLT
	movq	-72(%rbp), %rbx
	leaq	-96(%rbp), %rax
	movq	%rax, %rdi
	call	_ZN6QFlagsIN2Qt13AlignmentFlagEEC1Ev@PLT
	movl	-96(%rbp), %edx
	movq	-56(%rbp), %rax
	movl	%edx, %ecx
	movl	$0, %edx
	movq	%rax, %rsi
	movq	%rbx, %rdi
	call	_ZN10QBoxLayout9addWidgetEP7QWidgeti6QFlagsIN2Qt13AlignmentFlagEE@PLT
	movq	-72(%rbp), %rbx
	leaq	-96(%rbp), %rax
	movq	%rax, %rdi
	call	_ZN6QFlagsIN2Qt13AlignmentFlagEEC1Ev@PLT
	movl	-96(%rbp), %edx
	movq	-48(%rbp), %rax
	movl	%edx, %ecx
	movl	$0, %edx
	movq	%rax, %rsi
	movq	%rbx, %rdi
	call	_ZN10QBoxLayout9addWidgetEP7QWidgeti6QFlagsIN2Qt13AlignmentFlagEE@PLT
	cmpb	$0, -164(%rbp)
	je	.L285
	movl	$48, %edi
	call	_Znwm@PLT
.LEHE50:
	movq	%rax, %rbx
	movl	$1, %r13d
	leaq	-104(%rbp), %rax
	movq	%rax, %rdi
	call	_ZN6QFlagsIN2Qt10WindowTypeEEC1Ev@PLT
	leaq	-96(%rbp), %rax
	leaq	.LC9(%rip), %rdx
	movq	%rdx, %rsi
	movq	%rax, %rdi
.LEHB51:
	call	_ZN7QStringC1EPKc@PLT
.LEHE51:
	movl	-104(%rbp), %edx
	leaq	-96(%rbp), %rax
	movl	%edx, %ecx
	movl	$0, %edx
	movq	%rax, %rsi
	movq	%rbx, %rdi
.LEHB52:
	call	_ZN6QLabelC1ERK7QStringP7QWidget6QFlagsIN2Qt10WindowTypeEE@PLT
.LEHE52:
	movq	-136(%rbp), %rax
	movq	%rbx, 56(%rax)
	leaq	-96(%rbp), %rax
	movq	%rax, %rdi
	call	_ZN7QStringD1Ev@PLT
	movq	-136(%rbp), %rax
	movq	56(%rax), %rax
	movq	%rax, %rbx
	leaq	-96(%rbp), %rax
	leaq	.LC10(%rip), %rdx
	movq	%rdx, %rsi
	movq	%rax, %rdi
.LEHB53:
	call	_ZN7QStringC1EPKc@PLT
.LEHE53:
	leaq	-96(%rbp), %rax
	movq	%rax, %rsi
	movq	%rbx, %rdi
.LEHB54:
	call	_ZN7QWidget13setStyleSheetERK7QString@PLT
.LEHE54:
	leaq	-96(%rbp), %rax
	movq	%rax, %rdi
	call	_ZN7QStringD1Ev@PLT
	movq	-136(%rbp), %rax
	movq	56(%rax), %rbx
	leaq	-96(%rbp), %rax
	movl	$2, %esi
	movq	%rax, %rdi
	call	_ZN6QFlagsIN2Qt13AlignmentFlagEEC1ES1_@PLT
	movl	-96(%rbp), %eax
	movl	%eax, %esi
	movq	%rbx, %rdi
.LEHB55:
	call	_ZN6QLabel12setAlignmentE6QFlagsIN2Qt13AlignmentFlagEE@PLT
	movq	-136(%rbp), %rax
	movq	56(%rax), %rax
	movq	(%rax), %rax
	addq	$104, %rax
	movq	(%rax), %rax
	movq	-136(%rbp), %rdx
	movq	56(%rdx), %rdx
	movl	$0, %esi
	movq	%rdx, %rdi
	call	*%rax
	movq	-72(%rbp), %rbx
	leaq	-96(%rbp), %rax
	movq	%rax, %rdi
	call	_ZN6QFlagsIN2Qt13AlignmentFlagEEC1Ev@PLT
	movq	-136(%rbp), %rax
	movq	56(%rax), %rax
	movl	-96(%rbp), %edx
	movl	%edx, %ecx
	movl	$0, %edx
	movq	%rax, %rsi
	movq	%rbx, %rdi
	call	_ZN10QBoxLayout9addWidgetEP7QWidgeti6QFlagsIN2Qt13AlignmentFlagEE@PLT
.L285:
	cmpb	$0, -164(%rbp)
	je	.L286
	movq	-80(%rbp), %rbx
	leaq	-96(%rbp), %rax
	leaq	.LC11(%rip), %rdx
	movq	%rdx, %rsi
	movq	%rax, %rdi
	call	_ZN7QStringC1EPKc@PLT
.LEHE55:
	leaq	-96(%rbp), %rax
	movq	%rax, %rsi
	movq	%rbx, %rdi
.LEHB56:
	call	_ZN7QWidget13setStyleSheetERK7QString@PLT
.LEHE56:
	leaq	-96(%rbp), %rax
	movq	%rax, %rdi
	call	_ZN7QStringD1Ev@PLT
	movq	-88(%rbp), %rax
	movl	$1, %esi
	movq	%rax, %rdi
.LEHB57:
	call	_ZN10QBoxLayout10addStretchEi@PLT
	movq	-88(%rbp), %rbx
	leaq	-96(%rbp), %rax
	movq	%rax, %rdi
	call	_ZN6QFlagsIN2Qt13AlignmentFlagEEC1Ev@PLT
	movl	-96(%rbp), %edx
	movq	-80(%rbp), %rax
	movl	%edx, %ecx
	movl	$3, %edx
	movq	%rax, %rsi
	movq	%rbx, %rdi
	call	_ZN10QBoxLayout9addWidgetEP7QWidgeti6QFlagsIN2Qt13AlignmentFlagEE@PLT
	jmp	.L287
.L286:
	movq	-80(%rbp), %rbx
	leaq	-96(%rbp), %rax
	leaq	.LC12(%rip), %rdx
	movq	%rdx, %rsi
	movq	%rax, %rdi
	call	_ZN7QStringC1EPKc@PLT
.LEHE57:
	leaq	-96(%rbp), %rax
	movq	%rax, %rsi
	movq	%rbx, %rdi
.LEHB58:
	call	_ZN7QWidget13setStyleSheetERK7QString@PLT
.LEHE58:
	leaq	-96(%rbp), %rax
	movq	%rax, %rdi
	call	_ZN7QStringD1Ev@PLT
	movq	-88(%rbp), %rbx
	leaq	-96(%rbp), %rax
	movq	%rax, %rdi
	call	_ZN6QFlagsIN2Qt13AlignmentFlagEEC1Ev@PLT
	movl	-96(%rbp), %edx
	movq	-80(%rbp), %rax
	movl	%edx, %ecx
	movl	$3, %edx
	movq	%rax, %rsi
	movq	%rbx, %rdi
.LEHB59:
	call	_ZN10QBoxLayout9addWidgetEP7QWidgeti6QFlagsIN2Qt13AlignmentFlagEE@PLT
	movq	-88(%rbp), %rax
	movl	$1, %esi
	movq	%rax, %rdi
	call	_ZN10QBoxLayout10addStretchEi@PLT
.L287:
	movq	-80(%rbp), %rax
	movl	$500, %esi
	movq	%rax, %rdi
	call	_ZN7QWidget15setMaximumWidthEi@PLT
.LEHE59:
	jmp	.L331
.L315:
	endbr64
	movq	%rax, %r12
	testb	%r13b, %r13b
	je	.L289
	movl	$32, %esi
	movq	%rbx, %rdi
	call	_ZdlPvm@PLT
.L289:
	movq	%r12, %rbx
	jmp	.L290
.L316:
	endbr64
	movq	%rax, %r12
	testb	%r13b, %r13b
	je	.L292
	movl	$48, %esi
	movq	%rbx, %rdi
	call	_ZdlPvm@PLT
.L292:
	movq	%r12, %rbx
	jmp	.L290
.L317:
	endbr64
	movq	%rax, %r12
	testb	%r13b, %r13b
	je	.L294
	movl	$32, %esi
	movq	%rbx, %rdi
	call	_ZdlPvm@PLT
.L294:
	movq	%r12, %rbx
	jmp	.L290
.L318:
	endbr64
	movq	%rax, %r12
	testb	%r13b, %r13b
	je	.L296
	movl	$48, %esi
	movq	%rbx, %rdi
	call	_ZdlPvm@PLT
.L296:
	movq	%r12, %rbx
	jmp	.L290
.L321:
	endbr64
	movq	%rax, %rbx
	leaq	-112(%rbp), %rax
	movq	%rax, %rdi
	call	_ZN7QStringD1Ev@PLT
	jmp	.L298
.L320:
	endbr64
	movq	%rax, %rbx
.L298:
	leaq	-96(%rbp), %rax
	movq	%rax, %rdi
	call	_ZN7QStringD1Ev@PLT
	jmp	.L299
.L319:
	endbr64
	movq	%rax, %rbx
.L299:
	leaq	-104(%rbp), %rax
	movq	%rax, %rdi
	call	_ZN7QStringD1Ev@PLT
	jmp	.L290
.L322:
	endbr64
	movq	%rax, %r12
	testb	%r13b, %r13b
	je	.L301
	movl	$48, %esi
	movq	%rbx, %rdi
	call	_ZdlPvm@PLT
.L301:
	movq	%r12, %rbx
	jmp	.L290
.L323:
	endbr64
	movq	%rax, %rbx
	leaq	-96(%rbp), %rax
	movq	%rax, %rdi
	call	_ZN7QStringD1Ev@PLT
	jmp	.L290
.L324:
	endbr64
	movq	%rax, %r12
	testb	%r13b, %r13b
	je	.L304
	movl	$48, %esi
	movq	%rbx, %rdi
	call	_ZdlPvm@PLT
.L304:
	movq	%r12, %rbx
	jmp	.L290
.L325:
	endbr64
	movq	%rax, %rbx
	leaq	-96(%rbp), %rax
	movq	%rax, %rdi
	call	_ZN7QStringD1Ev@PLT
	jmp	.L290
.L327:
	endbr64
	movq	%rax, %r12
	leaq	-96(%rbp), %rax
	movq	%rax, %rdi
	call	_ZN7QStringD1Ev@PLT
	jmp	.L307
.L326:
	endbr64
	movq	%rax, %r12
.L307:
	testb	%r13b, %r13b
	je	.L308
	movl	$48, %esi
	movq	%rbx, %rdi
	call	_ZdlPvm@PLT
.L308:
	movq	%r12, %rbx
	jmp	.L290
.L328:
	endbr64
	movq	%rax, %rbx
	leaq	-96(%rbp), %rax
	movq	%rax, %rdi
	call	_ZN7QStringD1Ev@PLT
	jmp	.L290
.L329:
	endbr64
	movq	%rax, %rbx
	leaq	-96(%rbp), %rax
	movq	%rax, %rdi
	call	_ZN7QStringD1Ev@PLT
	jmp	.L290
.L330:
	endbr64
	movq	%rax, %rbx
	leaq	-96(%rbp), %rax
	movq	%rax, %rdi
	call	_ZN7QStringD1Ev@PLT
	jmp	.L290
.L314:
	endbr64
	movq	%rax, %rbx
.L290:
	movq	-136(%rbp), %rax
	movq	%rax, %rdi
	call	_ZN7QWidgetD2Ev@PLT
	movq	%rbx, %rax
	movq	-40(%rbp), %rdx
	subq	%fs:40, %rdx
	je	.L312
	call	__stack_chk_fail@PLT
.L312:
	movq	%rax, %rdi
.LEHB60:
	call	_Unwind_Resume@PLT
.LEHE60:
.L331:
	movq	-40(%rbp), %rax
	subq	%fs:40, %rax
	je	.L313
	call	__stack_chk_fail@PLT
.L313:
	addq	$152, %rsp
	popq	%rbx
	popq	%r12
	popq	%r13
	popq	%rbp
	.cfi_def_cfa 7, 8
	ret
	.cfi_endproc
.LFE10876:
	.section	.gcc_except_table,"a",@progbits
.LLSDA10876:
	.byte	0xff
	.byte	0xff
	.byte	0x1
	.uleb128 .LLSDACSE10876-.LLSDACSB10876
.LLSDACSB10876:
	.uleb128 .LEHB29-.LFB10876
	.uleb128 .LEHE29-.LEHB29
	.uleb128 0
	.uleb128 0
	.uleb128 .LEHB30-.LFB10876
	.uleb128 .LEHE30-.LEHB30
	.uleb128 .L314-.LFB10876
	.uleb128 0
	.uleb128 .LEHB31-.LFB10876
	.uleb128 .LEHE31-.LEHB31
	.uleb128 .L315-.LFB10876
	.uleb128 0
	.uleb128 .LEHB32-.LFB10876
	.uleb128 .LEHE32-.LEHB32
	.uleb128 .L314-.LFB10876
	.uleb128 0
	.uleb128 .LEHB33-.LFB10876
	.uleb128 .LEHE33-.LEHB33
	.uleb128 .L316-.LFB10876
	.uleb128 0
	.uleb128 .LEHB34-.LFB10876
	.uleb128 .LEHE34-.LEHB34
	.uleb128 .L314-.LFB10876
	.uleb128 0
	.uleb128 .LEHB35-.LFB10876
	.uleb128 .LEHE35-.LEHB35
	.uleb128 .L317-.LFB10876
	.uleb128 0
	.uleb128 .LEHB36-.LFB10876
	.uleb128 .LEHE36-.LEHB36
	.uleb128 .L314-.LFB10876
	.uleb128 0
	.uleb128 .LEHB37-.LFB10876
	.uleb128 .LEHE37-.LEHB37
	.uleb128 .L318-.LFB10876
	.uleb128 0
	.uleb128 .LEHB38-.LFB10876
	.uleb128 .LEHE38-.LEHB38
	.uleb128 .L314-.LFB10876
	.uleb128 0
	.uleb128 .LEHB39-.LFB10876
	.uleb128 .LEHE39-.LEHB39
	.uleb128 .L319-.LFB10876
	.uleb128 0
	.uleb128 .LEHB40-.LFB10876
	.uleb128 .LEHE40-.LEHB40
	.uleb128 .L320-.LFB10876
	.uleb128 0
	.uleb128 .LEHB41-.LFB10876
	.uleb128 .LEHE41-.LEHB41
	.uleb128 .L321-.LFB10876
	.uleb128 0
	.uleb128 .LEHB42-.LFB10876
	.uleb128 .LEHE42-.LEHB42
	.uleb128 .L314-.LFB10876
	.uleb128 0
	.uleb128 .LEHB43-.LFB10876
	.uleb128 .LEHE43-.LEHB43
	.uleb128 .L322-.LFB10876
	.uleb128 0
	.uleb128 .LEHB44-.LFB10876
	.uleb128 .LEHE44-.LEHB44
	.uleb128 .L314-.LFB10876
	.uleb128 0
	.uleb128 .LEHB45-.LFB10876
	.uleb128 .LEHE45-.LEHB45
	.uleb128 .L323-.LFB10876
	.uleb128 0
	.uleb128 .LEHB46-.LFB10876
	.uleb128 .LEHE46-.LEHB46
	.uleb128 .L314-.LFB10876
	.uleb128 0
	.uleb128 .LEHB47-.LFB10876
	.uleb128 .LEHE47-.LEHB47
	.uleb128 .L324-.LFB10876
	.uleb128 0
	.uleb128 .LEHB48-.LFB10876
	.uleb128 .LEHE48-.LEHB48
	.uleb128 .L314-.LFB10876
	.uleb128 0
	.uleb128 .LEHB49-.LFB10876
	.uleb128 .LEHE49-.LEHB49
	.uleb128 .L325-.LFB10876
	.uleb128 0
	.uleb128 .LEHB50-.LFB10876
	.uleb128 .LEHE50-.LEHB50
	.uleb128 .L314-.LFB10876
	.uleb128 0
	.uleb128 .LEHB51-.LFB10876
	.uleb128 .LEHE51-.LEHB51
	.uleb128 .L326-.LFB10876
	.uleb128 0
	.uleb128 .LEHB52-.LFB10876
	.uleb128 .LEHE52-.LEHB52
	.uleb128 .L327-.LFB10876
	.uleb128 0
	.uleb128 .LEHB53-.LFB10876
	.uleb128 .LEHE53-.LEHB53
	.uleb128 .L314-.LFB10876
	.uleb128 0
	.uleb128 .LEHB54-.LFB10876
	.uleb128 .LEHE54-.LEHB54
	.uleb128 .L328-.LFB10876
	.uleb128 0
	.uleb128 .LEHB55-.LFB10876
	.uleb128 .LEHE55-.LEHB55
	.uleb128 .L314-.LFB10876
	.uleb128 0
	.uleb128 .LEHB56-.LFB10876
	.uleb128 .LEHE56-.LEHB56
	.uleb128 .L329-.LFB10876
	.uleb128 0
	.uleb128 .LEHB57-.LFB10876
	.uleb128 .LEHE57-.LEHB57
	.uleb128 .L314-.LFB10876
	.uleb128 0
	.uleb128 .LEHB58-.LFB10876
	.uleb128 .LEHE58-.LEHB58
	.uleb128 .L330-.LFB10876
	.uleb128 0
	.uleb128 .LEHB59-.LFB10876
	.uleb128 .LEHE59-.LEHB59
	.uleb128 .L314-.LFB10876
	.uleb128 0
	.uleb128 .LEHB60-.LFB10876
	.uleb128 .LEHE60-.LEHB60
	.uleb128 0
	.uleb128 0
.LLSDACSE10876:
	.text
	.size	_ZN13MessageBubbleC2ERK7QStringS2_S2_bP7QWidget, .-_ZN13MessageBubbleC2ERK7QStringS2_S2_bP7QWidget
	.globl	_ZN13MessageBubbleC1ERK7QStringS2_S2_bP7QWidget
	.set	_ZN13MessageBubbleC1ERK7QStringS2_S2_bP7QWidget,_ZN13MessageBubbleC2ERK7QStringS2_S2_bP7QWidget
	.section	.rodata
.LC13:
	.string	"\342\234\223\342\234\223 \304\220\303\243 xem"
	.text
	.align 2
	.globl	_ZN13MessageBubble13setSeenStatusEb
	.type	_ZN13MessageBubble13setSeenStatusEb, @function
_ZN13MessageBubble13setSeenStatusEb:
.LFB10878:
	.cfi_startproc
	.cfi_personality 0x9b,DW.ref.__gxx_personality_v0
	.cfi_lsda 0x1b,.LLSDA10878
	endbr64
	pushq	%rbp
	.cfi_def_cfa_offset 16
	.cfi_offset 6, -16
	movq	%rsp, %rbp
	.cfi_def_cfa_register 6
	pushq	%rbx
	subq	$40, %rsp
	.cfi_offset 3, -24
	movq	%rdi, -40(%rbp)
	movl	%esi, %eax
	movb	%al, -44(%rbp)
	movq	%fs:40, %rax
	movq	%rax, -24(%rbp)
	xorl	%eax, %eax
	movq	-40(%rbp), %rax
	movq	56(%rax), %rax
	testq	%rax, %rax
	je	.L340
	movq	-40(%rbp), %rax
	movzbl	48(%rax), %eax
	testb	%al, %al
	je	.L340
	movq	-40(%rbp), %rax
	movq	56(%rax), %rbx
	cmpb	$0, -44(%rbp)
	je	.L334
	leaq	.LC13(%rip), %rax
	jmp	.L335
.L334:
	leaq	.LC9(%rip), %rax
.L335:
	leaq	-32(%rbp), %rdx
	movq	%rax, %rsi
	movq	%rdx, %rdi
.LEHB61:
	call	_ZN7QStringC1EPKc@PLT
.LEHE61:
	leaq	-32(%rbp), %rax
	movq	%rax, %rsi
	movq	%rbx, %rdi
.LEHB62:
	call	_ZN6QLabel7setTextERK7QString@PLT
.LEHE62:
	leaq	-32(%rbp), %rax
	movq	%rax, %rdi
	call	_ZN7QStringD1Ev@PLT
	movq	-40(%rbp), %rax
	movq	56(%rax), %rax
	movq	(%rax), %rax
	addq	$104, %rax
	movq	(%rax), %rdx
	movq	-40(%rbp), %rax
	movq	56(%rax), %rax
	movq	%rax, %rcx
	movzbl	-44(%rbp), %eax
	movl	%eax, %esi
	movq	%rcx, %rdi
.LEHB63:
	call	*%rdx
	jmp	.L340
.L339:
	endbr64
	movq	%rax, %rbx
	leaq	-32(%rbp), %rax
	movq	%rax, %rdi
	call	_ZN7QStringD1Ev@PLT
	movq	%rbx, %rax
	movq	-24(%rbp), %rdx
	subq	%fs:40, %rdx
	je	.L337
	call	__stack_chk_fail@PLT
.L337:
	movq	%rax, %rdi
	call	_Unwind_Resume@PLT
.LEHE63:
.L340:
	nop
	movq	-24(%rbp), %rax
	subq	%fs:40, %rax
	je	.L338
	call	__stack_chk_fail@PLT
.L338:
	movq	-8(%rbp), %rbx
	leave
	.cfi_def_cfa 7, 8
	ret
	.cfi_endproc
.LFE10878:
	.section	.gcc_except_table
.LLSDA10878:
	.byte	0xff
	.byte	0xff
	.byte	0x1
	.uleb128 .LLSDACSE10878-.LLSDACSB10878
.LLSDACSB10878:
	.uleb128 .LEHB61-.LFB10878
	.uleb128 .LEHE61-.LEHB61
	.uleb128 0
	.uleb128 0
	.uleb128 .LEHB62-.LFB10878
	.uleb128 .LEHE62-.LEHB62
	.uleb128 .L339-.LFB10878
	.uleb128 0
	.uleb128 .LEHB63-.LFB10878
	.uleb128 .LEHE63-.LEHB63
	.uleb128 0
	.uleb128 0
.LLSDACSE10878:
	.text
	.size	_ZN13MessageBubble13setSeenStatusEb, .-_ZN13MessageBubble13setSeenStatusEb
	.align 2
	.globl	_ZN10ChatWidgetC2EP13NetworkClientRK7QStringP7QWidget
	.type	_ZN10ChatWidgetC2EP13NetworkClientRK7QStringP7QWidget, @function
_ZN10ChatWidgetC2EP13NetworkClientRK7QStringP7QWidget:
.LFB10880:
	.cfi_startproc
	.cfi_personality 0x9b,DW.ref.__gxx_personality_v0
	.cfi_lsda 0x1b,.LLSDA10880
	endbr64
	pushq	%rbp
	.cfi_def_cfa_offset 16
	.cfi_offset 6, -16
	movq	%rsp, %rbp
	.cfi_def_cfa_register 6
	pushq	%r15
	pushq	%r14
	pushq	%r13
	pushq	%r12
	pushq	%rbx
	subq	$472, %rsp
	.cfi_offset 15, -24
	.cfi_offset 14, -32
	.cfi_offset 13, -40
	.cfi_offset 12, -48
	.cfi_offset 3, -56
	movq	%rdi, -72(%rbp)
	movq	%rsi, -80(%rbp)
	movq	%rdx, -88(%rbp)
	movq	%rcx, -96(%rbp)
	movq	%fs:40, %rax
	movq	%rax, -56(%rbp)
	xorl	%eax, %eax
	movq	-72(%rbp), %rbx
	leaq	-64(%rbp), %rax
	movq	%rax, %rdi
	call	_ZN6QFlagsIN2Qt10WindowTypeEEC1Ev@PLT
	movl	-64(%rbp), %edx
	movq	-96(%rbp), %rax
	movq	%rax, %rsi
	movq	%rbx, %rdi
.LEHB64:
	call	_ZN7QWidgetC2EPS_6QFlagsIN2Qt10WindowTypeEE@PLT
.LEHE64:
	movq	_ZTV10ChatWidget@GOTPCREL(%rip), %rax
	leaq	16(%rax), %rdx
	movq	-72(%rbp), %rax
	movq	%rdx, (%rax)
	movq	_ZTV10ChatWidget@GOTPCREL(%rip), %rax
	leaq	448(%rax), %rdx
	movq	-72(%rbp), %rax
	movq	%rdx, 16(%rax)
	movq	-72(%rbp), %rdx
	movq	-80(%rbp), %rax
	movq	%rax, 48(%rdx)
	movq	-72(%rbp), %rax
	leaq	56(%rax), %rdx
	movq	-88(%rbp), %rax
	movq	%rax, %rsi
	movq	%rdx, %rdi
	call	_ZN7QStringC1ERKS_@PLT
	movq	-72(%rbp), %rax
	addq	$64, %rax
	movq	%rax, %rdi
	call	_ZN7QStringC1Ev@PLT
	movq	-72(%rbp), %rax
	addq	$72, %rax
	movq	%rax, %rdi
	call	_ZN7QStringC1Ev@PLT
	movq	-72(%rbp), %rax
	movb	$0, 80(%rax)
	movq	-72(%rbp), %rax
	addq	$200, %rax
	movq	%rax, %rdi
	call	_ZN4QMapI7QStringS0_EC1Ev@PLT
	movq	-72(%rbp), %rax
	addq	$208, %rax
	movq	%rax, %rdi
	call	_ZN4QMapI7QStringbEC1Ev@PLT
	movq	-72(%rbp), %rax
	movq	%rax, %rdi
.LEHB65:
	call	_ZN10ChatWidget7setupUIEv@PLT
	movq	_ZN10ChatWidget20onFriendListReceivedERK5QListI5QPairI7QStringbEE@GOTPCREL(%rip), %rax
	movq	%rax, %r12
	movl	$0, %r13d
	movq	_ZN13NetworkClient18friendListReceivedERK5QListI5QPairI7QStringbEE@GOTPCREL(%rip), %rax
	movq	%rax, %r14
	movl	$0, %r15d
	movq	-72(%rbp), %rax
	movq	48(%rax), %rsi
	leaq	-64(%rbp), %rdi
	movq	-72(%rbp), %rax
	pushq	%r13
	pushq	%r12
	movl	$0, %r9d
	movq	%rax, %r8
	movq	%r14, %rdx
	movq	%r15, %rcx
	.cfi_escape 0x2e,0x10
	call	_ZN7QObject7connectIM13NetworkClientFvRK5QListI5QPairI7QStringbEEEM10ChatWidgetFvS8_EEEN11QMetaObject10ConnectionEPKN9QtPrivate15FunctionPointerIT_E6ObjectESI_PKNSH_IT0_E6ObjectESN_N2Qt14ConnectionTypeE@PLT
	addq	$16, %rsp
	leaq	-64(%rbp), %rax
	movq	%rax, %rdi
	call	_ZN11QMetaObject10ConnectionD1Ev@PLT
	movq	_ZN10ChatWidget19onGroupListReceivedERK11QStringList@GOTPCREL(%rip), %rax
	movq	%rax, -512(%rbp)
	movq	$0, -504(%rbp)
	movq	_ZN13NetworkClient17groupListReceivedERK11QStringList@GOTPCREL(%rip), %rax
	movq	%rax, -496(%rbp)
	movq	$0, -488(%rbp)
	movq	-72(%rbp), %rax
	movq	48(%rax), %rsi
	leaq	-64(%rbp), %rdi
	movq	-72(%rbp), %rax
	pushq	-504(%rbp)
	pushq	-512(%rbp)
	movl	$0, %r9d
	movq	%rax, %r8
	movq	-496(%rbp), %rdx
	movq	-488(%rbp), %rcx
	call	_ZN7QObject7connectIM13NetworkClientFvRK11QStringListEM10ChatWidgetFvS4_EEEN11QMetaObject10ConnectionEPKN9QtPrivate15FunctionPointerIT_E6ObjectESE_PKNSD_IT0_E6ObjectESJ_N2Qt14ConnectionTypeE@PLT
	addq	$16, %rsp
	leaq	-64(%rbp), %rax
	movq	%rax, %rdi
	call	_ZN11QMetaObject10ConnectionD1Ev@PLT
	movq	_ZN10ChatWidget25onPendingRequestsReceivedERK11QStringList@GOTPCREL(%rip), %rax
	movq	%rax, -480(%rbp)
	movq	$0, -472(%rbp)
	movq	_ZN13NetworkClient23pendingRequestsReceivedERK11QStringList@GOTPCREL(%rip), %rax
	movq	%rax, -464(%rbp)
	movq	$0, -456(%rbp)
	movq	-72(%rbp), %rax
	movq	48(%rax), %rsi
	leaq	-64(%rbp), %rdi
	movq	-72(%rbp), %rax
	pushq	-472(%rbp)
	pushq	-480(%rbp)
	movl	$0, %r9d
	movq	%rax, %r8
	movq	-464(%rbp), %rdx
	movq	-456(%rbp), %rcx
	call	_ZN7QObject7connectIM13NetworkClientFvRK11QStringListEM10ChatWidgetFvS4_EEEN11QMetaObject10ConnectionEPKN9QtPrivate15FunctionPointerIT_E6ObjectESE_PKNSD_IT0_E6ObjectESJ_N2Qt14ConnectionTypeE@PLT
	addq	$16, %rsp
	leaq	-64(%rbp), %rax
	movq	%rax, %rdi
	call	_ZN11QMetaObject10ConnectionD1Ev@PLT
	movq	_ZN10ChatWidget16onPrivateMessageERK7QStringS2_@GOTPCREL(%rip), %rax
	movq	%rax, -448(%rbp)
	movq	$0, -440(%rbp)
	movq	_ZN13NetworkClient22privateMessageReceivedERK7QStringS2_@GOTPCREL(%rip), %rax
	movq	%rax, -432(%rbp)
	movq	$0, -424(%rbp)
	movq	-72(%rbp), %rax
	movq	48(%rax), %rsi
	leaq	-64(%rbp), %rdi
	movq	-72(%rbp), %rax
	pushq	-440(%rbp)
	pushq	-448(%rbp)
	movl	$0, %r9d
	movq	%rax, %r8
	movq	-432(%rbp), %rdx
	movq	-424(%rbp), %rcx
	call	_ZN7QObject7connectIM13NetworkClientFvRK7QStringS4_EM10ChatWidgetFvS4_S4_EEEN11QMetaObject10ConnectionEPKN9QtPrivate15FunctionPointerIT_E6ObjectESE_PKNSD_IT0_E6ObjectESJ_N2Qt14ConnectionTypeE@PLT
	addq	$16, %rsp
	leaq	-64(%rbp), %rax
	movq	%rax, %rdi
	call	_ZN11QMetaObject10ConnectionD1Ev@PLT
	movq	_ZN10ChatWidget14onGroupMessageERK7QStringS2_S2_S2_@GOTPCREL(%rip), %rax
	movq	%rax, -416(%rbp)
	movq	$0, -408(%rbp)
	movq	_ZN13NetworkClient20groupMessageReceivedERK7QStringS2_S2_S2_@GOTPCREL(%rip), %rax
	movq	%rax, -400(%rbp)
	movq	$0, -392(%rbp)
	movq	-72(%rbp), %rax
	movq	48(%rax), %rsi
	leaq	-64(%rbp), %rdi
	movq	-72(%rbp), %rax
	pushq	-408(%rbp)
	pushq	-416(%rbp)
	movl	$0, %r9d
	movq	%rax, %r8
	movq	-400(%rbp), %rdx
	movq	-392(%rbp), %rcx
	call	_ZN7QObject7connectIM13NetworkClientFvRK7QStringS4_S4_S4_EM10ChatWidgetFvS4_S4_S4_S4_EEEN11QMetaObject10ConnectionEPKN9QtPrivate15FunctionPointerIT_E6ObjectESE_PKNSD_IT0_E6ObjectESJ_N2Qt14ConnectionTypeE@PLT
	addq	$16, %rsp
	leaq	-64(%rbp), %rax
	movq	%rax, %rdi
	call	_ZN11QMetaObject10ConnectionD1Ev@PLT
	movq	_ZN10ChatWidget15onFriendRequestERK7QString@GOTPCREL(%rip), %rax
	movq	%rax, -384(%rbp)
	movq	$0, -376(%rbp)
	movq	_ZN13NetworkClient21friendRequestReceivedERK7QString@GOTPCREL(%rip), %rax
	movq	%rax, -368(%rbp)
	movq	$0, -360(%rbp)
	movq	-72(%rbp), %rax
	movq	48(%rax), %rsi
	leaq	-64(%rbp), %rdi
	movq	-72(%rbp), %rax
	pushq	-376(%rbp)
	pushq	-384(%rbp)
	movl	$0, %r9d
	movq	%rax, %r8
	movq	-368(%rbp), %rdx
	movq	-360(%rbp), %rcx
	call	_ZN7QObject7connectIM13NetworkClientFvRK7QStringEM10ChatWidgetFvS4_EEEN11QMetaObject10ConnectionEPKN9QtPrivate15FunctionPointerIT_E6ObjectESE_PKNSD_IT0_E6ObjectESJ_N2Qt14ConnectionTypeE@PLT
	addq	$16, %rsp
	leaq	-64(%rbp), %rax
	movq	%rax, %rdi
	call	_ZN11QMetaObject10ConnectionD1Ev@PLT
	movq	_ZN10ChatWidget16onFriendAcceptedERK7QString@GOTPCREL(%rip), %rax
	movq	%rax, -352(%rbp)
	movq	$0, -344(%rbp)
	movq	_ZN13NetworkClient14friendAcceptedERK7QString@GOTPCREL(%rip), %rax
	movq	%rax, -336(%rbp)
	movq	$0, -328(%rbp)
	movq	-72(%rbp), %rax
	movq	48(%rax), %rsi
	leaq	-64(%rbp), %rdi
	movq	-72(%rbp), %rax
	pushq	-344(%rbp)
	pushq	-352(%rbp)
	movl	$0, %r9d
	movq	%rax, %r8
	movq	-336(%rbp), %rdx
	movq	-328(%rbp), %rcx
	call	_ZN7QObject7connectIM13NetworkClientFvRK7QStringEM10ChatWidgetFvS4_EEEN11QMetaObject10ConnectionEPKN9QtPrivate15FunctionPointerIT_E6ObjectESE_PKNSD_IT0_E6ObjectESJ_N2Qt14ConnectionTypeE@PLT
	addq	$16, %rsp
	leaq	-64(%rbp), %rax
	movq	%rax, %rdi
	call	_ZN11QMetaObject10ConnectionD1Ev@PLT
	movq	_ZN10ChatWidget14onFriendOnlineERK7QString@GOTPCREL(%rip), %rax
	movq	%rax, -320(%rbp)
	movq	$0, -312(%rbp)
	movq	_ZN13NetworkClient12friendOnlineERK7QString@GOTPCREL(%rip), %rax
	movq	%rax, -304(%rbp)
	movq	$0, -296(%rbp)
	movq	-72(%rbp), %rax
	movq	48(%rax), %rsi
	leaq	-64(%rbp), %rdi
	movq	-72(%rbp), %rax
	pushq	-312(%rbp)
	pushq	-320(%rbp)
	movl	$0, %r9d
	movq	%rax, %r8
	movq	-304(%rbp), %rdx
	movq	-296(%rbp), %rcx
	call	_ZN7QObject7connectIM13NetworkClientFvRK7QStringEM10ChatWidgetFvS4_EEEN11QMetaObject10ConnectionEPKN9QtPrivate15FunctionPointerIT_E6ObjectESE_PKNSD_IT0_E6ObjectESJ_N2Qt14ConnectionTypeE@PLT
	addq	$16, %rsp
	leaq	-64(%rbp), %rax
	movq	%rax, %rdi
	call	_ZN11QMetaObject10ConnectionD1Ev@PLT
	movq	_ZN10ChatWidget15onFriendOfflineERK7QString@GOTPCREL(%rip), %rax
	movq	%rax, -288(%rbp)
	movq	$0, -280(%rbp)
	movq	_ZN13NetworkClient13friendOfflineERK7QString@GOTPCREL(%rip), %rax
	movq	%rax, -272(%rbp)
	movq	$0, -264(%rbp)
	movq	-72(%rbp), %rax
	movq	48(%rax), %rsi
	leaq	-64(%rbp), %rdi
	movq	-72(%rbp), %rax
	pushq	-280(%rbp)
	pushq	-288(%rbp)
	movl	$0, %r9d
	movq	%rax, %r8
	movq	-272(%rbp), %rdx
	movq	-264(%rbp), %rcx
	call	_ZN7QObject7connectIM13NetworkClientFvRK7QStringEM10ChatWidgetFvS4_EEEN11QMetaObject10ConnectionEPKN9QtPrivate15FunctionPointerIT_E6ObjectESE_PKNSD_IT0_E6ObjectESJ_N2Qt14ConnectionTypeE@PLT
	addq	$16, %rsp
	leaq	-64(%rbp), %rax
	movq	%rax, %rdi
	call	_ZN11QMetaObject10ConnectionD1Ev@PLT
	movq	_ZN10ChatWidget22onGroupMembersReceivedERK7QStringS2_RK5QListI5QPairIS0_bEE@GOTPCREL(%rip), %rax
	movq	%rax, -256(%rbp)
	movq	$0, -248(%rbp)
	movq	_ZN13NetworkClient20groupMembersReceivedERK7QStringS2_RK5QListI5QPairIS0_bEE@GOTPCREL(%rip), %rax
	movq	%rax, -240(%rbp)
	movq	$0, -232(%rbp)
	movq	-72(%rbp), %rax
	movq	48(%rax), %rsi
	leaq	-64(%rbp), %rdi
	movq	-72(%rbp), %rax
	pushq	-248(%rbp)
	pushq	-256(%rbp)
	movl	$0, %r9d
	movq	%rax, %r8
	movq	-240(%rbp), %rdx
	movq	-232(%rbp), %rcx
	call	_ZN7QObject7connectIM13NetworkClientFvRK7QStringS4_RK5QListI5QPairIS2_bEEEM10ChatWidgetFvS4_S4_SA_EEEN11QMetaObject10ConnectionEPKN9QtPrivate15FunctionPointerIT_E6ObjectESK_PKNSJ_IT0_E6ObjectESP_N2Qt14ConnectionTypeE@PLT
	addq	$16, %rsp
	leaq	-64(%rbp), %rax
	movq	%rax, %rdi
	call	_ZN11QMetaObject10ConnectionD1Ev@PLT
	movq	_ZN10ChatWidget24onChangePasswordResponseEbRK7QString@GOTPCREL(%rip), %rax
	movq	%rax, -224(%rbp)
	movq	$0, -216(%rbp)
	movq	_ZN13NetworkClient22changePasswordResponseEbRK7QString@GOTPCREL(%rip), %rax
	movq	%rax, -208(%rbp)
	movq	$0, -200(%rbp)
	movq	-72(%rbp), %rax
	movq	48(%rax), %rsi
	leaq	-64(%rbp), %rdi
	movq	-72(%rbp), %rax
	pushq	-216(%rbp)
	pushq	-224(%rbp)
	movl	$0, %r9d
	movq	%rax, %r8
	movq	-208(%rbp), %rdx
	movq	-200(%rbp), %rcx
	call	_ZN7QObject7connectIM13NetworkClientFvbRK7QStringEM10ChatWidgetFvbS4_EEEN11QMetaObject10ConnectionEPKN9QtPrivate15FunctionPointerIT_E6ObjectESE_PKNSD_IT0_E6ObjectESJ_N2Qt14ConnectionTypeE@PLT
	addq	$16, %rsp
	leaq	-64(%rbp), %rax
	movq	%rax, %rdi
	call	_ZN11QMetaObject10ConnectionD1Ev@PLT
	movq	_ZN10ChatWidget28onPrivateChatHistoryReceivedERK7QStringiiRK5QListI4QMapIS0_S0_EE@GOTPCREL(%rip), %rax
	movq	%rax, -192(%rbp)
	movq	$0, -184(%rbp)
	movq	_ZN13NetworkClient26privateChatHistoryReceivedERK7QStringiiRK5QListI4QMapIS0_S0_EE@GOTPCREL(%rip), %rax
	movq	%rax, -176(%rbp)
	movq	$0, -168(%rbp)
	movq	-72(%rbp), %rax
	movq	48(%rax), %rsi
	leaq	-64(%rbp), %rax
	movq	-72(%rbp), %rdx
	pushq	-184(%rbp)
	pushq	-192(%rbp)
	movl	$0, %r9d
	movq	%rdx, %r8
	movq	-176(%rbp), %rdx
	movq	-168(%rbp), %rcx
	movq	%rax, %rdi
	call	_ZN7QObject7connectIM13NetworkClientFvRK7QStringiiRK5QListI4QMapIS2_S2_EEEM10ChatWidgetFvS4_iiSA_EEEN11QMetaObject10ConnectionEPKN9QtPrivate15FunctionPointerIT_E6ObjectESK_PKNSJ_IT0_E6ObjectESP_N2Qt14ConnectionTypeE@PLT
	addq	$16, %rsp
	leaq	-64(%rbp), %rax
	movq	%rax, %rdi
	call	_ZN11QMetaObject10ConnectionD1Ev@PLT
	movq	_ZN10ChatWidget26onGroupChatHistoryReceivedERK7QStringS2_iiRK5QListI4QMapIS0_S0_EE@GOTPCREL(%rip), %rax
	movq	%rax, -160(%rbp)
	movq	$0, -152(%rbp)
	movq	_ZN13NetworkClient24groupChatHistoryReceivedERK7QStringS2_iiRK5QListI4QMapIS0_S0_EE@GOTPCREL(%rip), %rax
	movq	%rax, -144(%rbp)
	movq	$0, -136(%rbp)
	movq	-72(%rbp), %rax
	movq	48(%rax), %rsi
	leaq	-64(%rbp), %rax
	movq	-72(%rbp), %rdx
	pushq	-152(%rbp)
	pushq	-160(%rbp)
	movl	$0, %r9d
	movq	%rdx, %r8
	movq	-144(%rbp), %rdx
	movq	-136(%rbp), %rcx
	movq	%rax, %rdi
	call	_ZN7QObject7connectIM13NetworkClientFvRK7QStringS4_iiRK5QListI4QMapIS2_S2_EEEM10ChatWidgetFvS4_S4_iiSA_EEEN11QMetaObject10ConnectionEPKN9QtPrivate15FunctionPointerIT_E6ObjectESK_PKNSJ_IT0_E6ObjectESP_N2Qt14ConnectionTypeE@PLT
	addq	$16, %rsp
	leaq	-64(%rbp), %rax
	movq	%rax, %rdi
	call	_ZN11QMetaObject10ConnectionD1Ev@PLT
	movq	_ZN10ChatWidget26onMessagesReadNotificationERK7QString@GOTPCREL(%rip), %rax
	movq	%rax, -128(%rbp)
	movq	$0, -120(%rbp)
	movq	_ZN13NetworkClient24messagesReadNotificationERK7QString@GOTPCREL(%rip), %rax
	movq	%rax, -112(%rbp)
	movq	$0, -104(%rbp)
	movq	-72(%rbp), %rax
	movq	48(%rax), %rsi
	leaq	-64(%rbp), %rax
	movq	-72(%rbp), %rdx
	pushq	-120(%rbp)
	pushq	-128(%rbp)
	movl	$0, %r9d
	movq	%rdx, %r8
	movq	-112(%rbp), %rdx
	movq	-104(%rbp), %rcx
	movq	%rax, %rdi
	call	_ZN7QObject7connectIM13NetworkClientFvRK7QStringEM10ChatWidgetFvS4_EEEN11QMetaObject10ConnectionEPKN9QtPrivate15FunctionPointerIT_E6ObjectESE_PKNSD_IT0_E6ObjectESJ_N2Qt14ConnectionTypeE@PLT
	addq	$16, %rsp
	leaq	-64(%rbp), %rax
	movq	%rax, %rdi
	call	_ZN11QMetaObject10ConnectionD1Ev@PLT
	movq	-72(%rbp), %rax
	movl	$0, 192(%rax)
	movq	-72(%rbp), %rax
	movl	$0, 196(%rax)
	movq	-72(%rbp), %rax
	movq	48(%rax), %rax
	movq	%rax, %rdi
	.cfi_escape 0x2e,0
	call	_ZN13NetworkClient14sendFriendListEv@PLT
	movq	-72(%rbp), %rax
	movq	48(%rax), %rax
	movq	%rax, %rdi
	call	_ZN13NetworkClient13sendGroupListEv@PLT
.LEHE65:
	jmp	.L346
.L345:
	endbr64
	movq	%rax, %rbx
	movq	-72(%rbp), %rax
	addq	$208, %rax
	movq	%rax, %rdi
	call	_ZN4QMapI7QStringbED1Ev@PLT
	movq	-72(%rbp), %rax
	addq	$200, %rax
	movq	%rax, %rdi
	call	_ZN4QMapI7QStringS0_ED1Ev@PLT
	movq	-72(%rbp), %rax
	addq	$72, %rax
	movq	%rax, %rdi
	call	_ZN7QStringD1Ev@PLT
	movq	-72(%rbp), %rax
	addq	$64, %rax
	movq	%rax, %rdi
	call	_ZN7QStringD1Ev@PLT
	movq	-72(%rbp), %rax
	addq	$56, %rax
	movq	%rax, %rdi
	call	_ZN7QStringD1Ev@PLT
	movq	-72(%rbp), %rax
	movq	%rax, %rdi
	call	_ZN7QWidgetD2Ev@PLT
	movq	%rbx, %rax
	movq	-56(%rbp), %rdx
	subq	%fs:40, %rdx
	je	.L343
	call	__stack_chk_fail@PLT
.L343:
	movq	%rax, %rdi
.LEHB66:
	call	_Unwind_Resume@PLT
.LEHE66:
.L346:
	movq	-56(%rbp), %rax
	subq	%fs:40, %rax
	je	.L344
	call	__stack_chk_fail@PLT
.L344:
	leaq	-40(%rbp), %rsp
	popq	%rbx
	popq	%r12
	popq	%r13
	popq	%r14
	popq	%r15
	popq	%rbp
	.cfi_def_cfa 7, 8
	ret
	.cfi_endproc
.LFE10880:
	.section	.gcc_except_table
.LLSDA10880:
	.byte	0xff
	.byte	0xff
	.byte	0x1
	.uleb128 .LLSDACSE10880-.LLSDACSB10880
.LLSDACSB10880:
	.uleb128 .LEHB64-.LFB10880
	.uleb128 .LEHE64-.LEHB64
	.uleb128 0
	.uleb128 0
	.uleb128 .LEHB65-.LFB10880
	.uleb128 .LEHE65-.LEHB65
	.uleb128 .L345-.LFB10880
	.uleb128 0
	.uleb128 .LEHB66-.LFB10880
	.uleb128 .LEHE66-.LEHB66
	.uleb128 0
	.uleb128 0
.LLSDACSE10880:
	.text
	.size	_ZN10ChatWidgetC2EP13NetworkClientRK7QStringP7QWidget, .-_ZN10ChatWidgetC2EP13NetworkClientRK7QStringP7QWidget
	.globl	_ZN10ChatWidgetC1EP13NetworkClientRK7QStringP7QWidget
	.set	_ZN10ChatWidgetC1EP13NetworkClientRK7QStringP7QWidget,_ZN10ChatWidgetC2EP13NetworkClientRK7QStringP7QWidget
	.section	.rodata
.LC14:
	.string	"background-color: #f5f5f5;"
.LC15:
	.string	"User: "
	.align 8
.LC16:
	.string	"font-size: 16px; font-weight: bold; padding: 10px; background-color: #2196F3; color: white;"
.LC17:
	.string	"Refresh"
.LC18:
	.string	"L\303\240m m\341\273\233i danh s\303\241ch"
	.align 8
.LC19:
	.string	"QPushButton { background-color: #2196F3; color: white; padding: 8px 12px; border-radius: 6px; font-weight: bold; font-size: 12px; border: none; }QPushButton:hover { background-color: #1976D2; }QPushButton:pressed { background-color: #1565C0; }"
.LC20:
	.string	"+ Add"
.LC21:
	.string	"Th\303\252m b\341\272\241n"
	.align 8
.LC22:
	.string	"QPushButton { background-color: #4CAF50; color: white; padding: 8px 12px; border-radius: 6px; font-weight: bold; font-size: 12px; border: none; }QPushButton:hover { background-color: #43A047; }QPushButton:pressed { background-color: #388E3C; }"
.LC23:
	.string	"Pending"
.LC24:
	.string	"L\341\273\235i m\341\273\235i ch\341\273\235"
	.align 8
.LC25:
	.string	"QPushButton { background-color: #FF9800; color: white; padding: 8px 12px; border-radius: 6px; font-weight: bold; font-size: 12px; border: none; }QPushButton:hover { background-color: #F57C00; }QPushButton:pressed { background-color: #E65100; }"
	.align 8
.LC26:
	.string	"QListWidget { background-color: white; border: none; }QListWidget::item { padding: 10px; border-bottom: 1px solid #eee; }QListWidget::item:hover { background-color: #e3f2fd; }QListWidget::item:selected { background-color: #2196F3; color: white; }"
.LC27:
	.string	"Friends"
.LC28:
	.string	"L\303\240m m\341\273\233i"
	.align 8
.LC29:
	.string	"QPushButton { background-color: #2196F3; color: white; padding: 8px 10px; border-radius: 6px; font-weight: bold; font-size: 11px; border: none; }QPushButton:hover { background-color: #1976D2; }QPushButton:pressed { background-color: #1565C0; }"
.LC30:
	.string	"+ New"
.LC31:
	.string	"T\341\272\241o nh\303\263m"
	.align 8
.LC32:
	.string	"QPushButton { background-color: #4CAF50; color: white; padding: 8px 10px; border-radius: 6px; font-weight: bold; font-size: 11px; border: none; }QPushButton:hover { background-color: #43A047; }QPushButton:pressed { background-color: #388E3C; }"
.LC33:
	.string	"Join"
.LC34:
	.string	"Tham gia nh\303\263m"
	.align 8
.LC35:
	.string	"QPushButton { background-color: #9C27B0; color: white; padding: 8px 10px; border-radius: 6px; font-weight: bold; font-size: 11px; border: none; }QPushButton:hover { background-color: #7B1FA2; }QPushButton:pressed { background-color: #6A1B9A; }"
.LC36:
	.string	"Leave"
.LC37:
	.string	"R\341\273\235i nh\303\263m"
	.align 8
.LC38:
	.string	"QPushButton { background-color: #f44336; color: white; padding: 8px 10px; border-radius: 6px; font-weight: bold; font-size: 11px; border: none; }QPushButton:hover { background-color: #d32f2f; }QPushButton:pressed { background-color: #c62828; }"
	.align 8
.LC39:
	.string	"QListWidget { background-color: white; border: none; }QListWidget::item { padding: 10px; border-bottom: 1px solid #eee; }QListWidget::item:hover { background-color: #e8f5e9; }QListWidget::item:selected { background-color: #4CAF50; color: white; }"
.LC40:
	.string	"Groups"
.LC41:
	.string	"\360\237\221\244"
	.align 8
.LC42:
	.string	"font-size: 48px; background: transparent;"
	.align 8
.LC43:
	.string	"font-size: 18px; font-weight: bold; color: #333; background: transparent;"
.LC44:
	.string	"Online"
	.align 8
.LC45:
	.string	"font-size: 12px; color: #4CAF50; background: transparent;"
.LC46:
	.string	"Change Password"
	.align 8
.LC47:
	.string	"QPushButton { background-color: #2196F3; color: white; padding: 12px; border-radius: 6px; font-size: 14px; font-weight: bold; border: none; }QPushButton:hover { background-color: #1976D2; }"
.LC48:
	.string	"Logout"
	.align 8
.LC49:
	.string	"QPushButton { background-color: #f44336; color: white; padding: 12px; border-radius: 6px; font-size: 14px; font-weight: bold; border: none; }QPushButton:hover { background-color: #d32f2f; }"
.LC50:
	.string	"Account"
.LC51:
	.string	"background-color: white;"
	.align 8
.LC52:
	.string	"background-color: #e3f2fd; border-bottom: 1px solid #ddd;"
.LC53:
	.string	"Chon nguoi hoac nhom de chat"
	.align 8
.LC54:
	.string	"font-size: 18px; font-weight: bold;"
.LC55:
	.string	"\342\213\256"
	.align 8
.LC56:
	.string	"QToolButton { background-color: transparent; color: #555; font-size: 24px; font-weight: bold; padding: 5px 10px; border: none; border-radius: 5px; }QToolButton:hover { background-color: #ddd; }QToolButton::menu-indicator { image: none; }"
	.align 8
.LC57:
	.string	"QMenu { background-color: white; border: 1px solid #ddd; }QMenu::item { padding: 8px 20px; }QMenu::item:selected { background-color: #e3f2fd; }"
.LC58:
	.string	"View Members"
.LC59:
	.string	"Leave Group"
	.align 8
.LC60:
	.string	"\360\237\223\234 T\341\272\243i tin nh\341\272\257n c\305\251 h\306\241n..."
	.align 8
.LC61:
	.string	"QPushButton { background-color: #f0f0f0; color: #666; padding: 8px; border: 1px solid #ddd; border-radius: 8px; font-size: 13px; }QPushButton:hover { background-color: #e0e0e0; }"
	.align 8
.LC62:
	.string	"QListWidget { border: none; background-color: #f5f5f5; }QListWidget::item { border: none; background: transparent; }"
	.align 8
.LC63:
	.string	"QLabel { color: #34B7F1; font-size: 12px; padding: 2px 15px; }"
.LC64:
	.string	"Noto Color Emoji"
	.align 8
.LC65:
	.string	"QToolButton { background-color: #f5f5f5; border: 1px solid #ddd; border-radius: 20px; padding: 8px; min-width: 40px; min-height: 40px; }QToolButton:hover { background-color: #e0e0e0; }QToolButton:pressed { background-color: #bdbdbd; }"
.LC66:
	.string	"Type a message..."
	.align 8
.LC67:
	.string	"padding: 12px; border: 1px solid #ddd; border-radius: 20px; font-size: 14px; font-family: 'Noto Color Emoji', 'Segoe UI Emoji', sans-serif;"
.LC68:
	.string	"Send"
	.align 8
.LC69:
	.string	"QPushButton { background-color: #2196F3; color: white; padding: 12px 25px; border-radius: 20px; font-weight: bold; }QPushButton:hover { background-color: #1976D2; }QPushButton:disabled { background-color: #ccc; }"
	.text
	.align 2
	.globl	_ZN10ChatWidget7setupUIEv
	.type	_ZN10ChatWidget7setupUIEv, @function
_ZN10ChatWidget7setupUIEv:
.LFB10882:
	.cfi_startproc
	.cfi_personality 0x9b,DW.ref.__gxx_personality_v0
	.cfi_lsda 0x1b,.LLSDA10882
	endbr64
	pushq	%rbp
	.cfi_def_cfa_offset 16
	.cfi_offset 6, -16
	movq	%rsp, %rbp
	.cfi_def_cfa_register 6
	pushq	%r15
	pushq	%r14
	pushq	%r13
	pushq	%r12
	pushq	%rbx
	subq	$856, %rsp
	.cfi_offset 15, -24
	.cfi_offset 14, -32
	.cfi_offset 13, -40
	.cfi_offset 12, -48
	.cfi_offset 3, -56
	movq	%rdi, -360(%rbp)
	movq	%fs:40, %rax
	movq	%rax, -56(%rbp)
	xorl	%eax, %eax
	movl	$32, %edi
.LEHB67:
	call	_Znwm@PLT
.LEHE67:
	movq	%rax, %r12
	movl	$1, %r13d
	movq	-360(%rbp), %rax
	movq	%rax, %rsi
	movq	%r12, %rdi
.LEHB68:
	call	_ZN11QHBoxLayoutC1EP7QWidget@PLT
.LEHE68:
	movq	%r12, -328(%rbp)
	movq	-328(%rbp), %rax
	movl	$0, %esi
	movq	%rax, %rdi
.LEHB69:
	call	_ZN10QBoxLayout10setSpacingEi@PLT
	movq	-328(%rbp), %rax
	movl	$0, %r8d
	movl	$0, %ecx
	movl	$0, %edx
	movl	$0, %esi
	movq	%rax, %rdi
	call	_ZN7QLayout18setContentsMarginsEiiii@PLT
	movl	$48, %edi
	call	_Znwm@PLT
.LEHE69:
	movq	%rax, %r12
	movl	$1, %r13d
	leaq	-80(%rbp), %rax
	movq	%rax, %rdi
	call	_ZN6QFlagsIN2Qt10WindowTypeEEC1Ev@PLT
	movl	-80(%rbp), %eax
	movl	%eax, %edx
	movl	$0, %esi
	movq	%r12, %rdi
.LEHB70:
	call	_ZN7QWidgetC1EPS_6QFlagsIN2Qt10WindowTypeEE@PLT
.LEHE70:
	movq	%r12, -320(%rbp)
	movq	-320(%rbp), %rax
	movl	$280, %esi
	movq	%rax, %rdi
.LEHB71:
	call	_ZN7QWidget13setFixedWidthEi@PLT
	movq	-320(%rbp), %rbx
	leaq	-80(%rbp), %rdx
	leaq	.LC14(%rip), %rax
	movq	%rax, %rsi
	movq	%rdx, %rdi
	call	_ZN7QStringC1EPKc@PLT
.LEHE71:
	leaq	-80(%rbp), %rax
	movq	%rax, %rsi
	movq	%rbx, %rdi
.LEHB72:
	call	_ZN7QWidget13setStyleSheetERK7QString@PLT
.LEHE72:
	leaq	-80(%rbp), %rax
	movq	%rax, %rdi
	call	_ZN7QStringD1Ev@PLT
	movl	$32, %edi
.LEHB73:
	call	_Znwm@PLT
.LEHE73:
	movq	%rax, %r12
	movl	$1, %r13d
	movq	-320(%rbp), %rax
	movq	%rax, %rsi
	movq	%r12, %rdi
.LEHB74:
	call	_ZN11QVBoxLayoutC1EP7QWidget@PLT
.LEHE74:
	movq	%r12, -312(%rbp)
	movl	$48, %edi
.LEHB75:
	call	_Znwm@PLT
.LEHE75:
	movq	%rax, %r12
	movl	$1, %r13d
	leaq	-336(%rbp), %rax
	movq	%rax, %rdi
	call	_ZN6QFlagsIN2Qt10WindowTypeEEC1Ev@PLT
	movq	-360(%rbp), %rax
	addq	$56, %rax
	leaq	-80(%rbp), %rcx
	movq	%rax, %rdx
	leaq	.LC15(%rip), %rax
	movq	%rax, %rsi
	movq	%rcx, %rdi
.LEHB76:
	call	_ZplPKcRK7QString@PLT
.LEHE76:
	movl	-336(%rbp), %eax
	leaq	-80(%rbp), %rsi
	movl	%eax, %ecx
	movl	$0, %edx
	movq	%r12, %rdi
.LEHB77:
	call	_ZN6QLabelC1ERK7QStringP7QWidget6QFlagsIN2Qt10WindowTypeEE@PLT
.LEHE77:
	movq	%r12, -304(%rbp)
	leaq	-80(%rbp), %rax
	movq	%rax, %rdi
	call	_ZN7QStringD1Ev@PLT
	movq	-304(%rbp), %rbx
	leaq	-80(%rbp), %rdx
	leaq	.LC16(%rip), %rax
	movq	%rax, %rsi
	movq	%rdx, %rdi
.LEHB78:
	call	_ZN7QStringC1EPKc@PLT
.LEHE78:
	leaq	-80(%rbp), %rax
	movq	%rax, %rsi
	movq	%rbx, %rdi
.LEHB79:
	call	_ZN7QWidget13setStyleSheetERK7QString@PLT
.LEHE79:
	leaq	-80(%rbp), %rax
	movq	%rax, %rdi
	call	_ZN7QStringD1Ev@PLT
	movq	-312(%rbp), %rbx
	leaq	-80(%rbp), %rax
	movq	%rax, %rdi
	call	_ZN6QFlagsIN2Qt13AlignmentFlagEEC1Ev@PLT
	movl	-80(%rbp), %eax
	movq	-304(%rbp), %rsi
	movl	%eax, %ecx
	movl	$0, %edx
	movq	%rbx, %rdi
.LEHB80:
	call	_ZN10QBoxLayout9addWidgetEP7QWidgeti6QFlagsIN2Qt13AlignmentFlagEE@PLT
	movl	$48, %edi
	call	_Znwm@PLT
.LEHE80:
	movq	%rax, %r12
	movl	$1, %r13d
	movl	$0, %esi
	movq	%r12, %rdi
.LEHB81:
	call	_ZN10QTabWidgetC1EP7QWidget@PLT
.LEHE81:
	movq	-360(%rbp), %rax
	movq	%r12, 88(%rax)
	movl	$48, %edi
.LEHB82:
	call	_Znwm@PLT
.LEHE82:
	movq	%rax, %r12
	movl	$1, %r13d
	leaq	-80(%rbp), %rax
	movq	%rax, %rdi
	call	_ZN6QFlagsIN2Qt10WindowTypeEEC1Ev@PLT
	movl	-80(%rbp), %eax
	movl	%eax, %edx
	movl	$0, %esi
	movq	%r12, %rdi
.LEHB83:
	call	_ZN7QWidgetC1EPS_6QFlagsIN2Qt10WindowTypeEE@PLT
.LEHE83:
	movq	%r12, -296(%rbp)
	movl	$32, %edi
.LEHB84:
	call	_Znwm@PLT
.LEHE84:
	movq	%rax, %r12
	movl	$1, %r13d
	movq	-296(%rbp), %rax
	movq	%rax, %rsi
	movq	%r12, %rdi
.LEHB85:
	call	_ZN11QVBoxLayoutC1EP7QWidget@PLT
.LEHE85:
	movq	%r12, -288(%rbp)
	movq	-288(%rbp), %rax
	movl	$5, %r8d
	movl	$8, %ecx
	movl	$10, %edx
	movl	$8, %esi
	movq	%rax, %rdi
.LEHB86:
	call	_ZN7QLayout18setContentsMarginsEiiii@PLT
	movq	-288(%rbp), %rax
	movl	$10, %esi
	movq	%rax, %rdi
	call	_ZN10QBoxLayout10setSpacingEi@PLT
	movl	$32, %edi
	call	_Znwm@PLT
.LEHE86:
	movq	%rax, %r12
	movl	$1, %r13d
	movq	%r12, %rdi
.LEHB87:
	call	_ZN11QHBoxLayoutC1Ev@PLT
.LEHE87:
	movq	%r12, -280(%rbp)
	movq	-280(%rbp), %rax
	movl	$6, %esi
	movq	%rax, %rdi
.LEHB88:
	call	_ZN10QBoxLayout10setSpacingEi@PLT
	movl	$48, %edi
	call	_Znwm@PLT
.LEHE88:
	movq	%rax, %r12
	movl	$1, %r13d
	leaq	-80(%rbp), %rdx
	leaq	.LC17(%rip), %rax
	movq	%rax, %rsi
	movq	%rdx, %rdi
.LEHB89:
	call	_ZN7QStringC1EPKc@PLT
.LEHE89:
	leaq	-80(%rbp), %rax
	movl	$0, %edx
	movq	%rax, %rsi
	movq	%r12, %rdi
.LEHB90:
	call	_ZN11QPushButtonC1ERK7QStringP7QWidget@PLT
.LEHE90:
	movq	%r12, -272(%rbp)
	leaq	-80(%rbp), %rax
	movq	%rax, %rdi
	call	_ZN7QStringD1Ev@PLT
	movq	-272(%rbp), %rbx
	leaq	-80(%rbp), %rdx
	leaq	.LC18(%rip), %rax
	movq	%rax, %rsi
	movq	%rdx, %rdi
.LEHB91:
	call	_ZN7QStringC1EPKc@PLT
.LEHE91:
	leaq	-80(%rbp), %rax
	movq	%rax, %rsi
	movq	%rbx, %rdi
.LEHB92:
	call	_ZN7QWidget10setToolTipERK7QString@PLT
.LEHE92:
	leaq	-80(%rbp), %rax
	movq	%rax, %rdi
	call	_ZN7QStringD1Ev@PLT
	movq	-272(%rbp), %rax
	movl	$36, %esi
	movq	%rax, %rdi
.LEHB93:
	call	_ZN7QWidget16setMinimumHeightEi@PLT
	movq	-272(%rbp), %rbx
	leaq	-80(%rbp), %rdx
	leaq	.LC19(%rip), %rax
	movq	%rax, %rsi
	movq	%rdx, %rdi
	call	_ZN7QStringC1EPKc@PLT
.LEHE93:
	leaq	-80(%rbp), %rax
	movq	%rax, %rsi
	movq	%rbx, %rdi
.LEHB94:
	call	_ZN7QWidget13setStyleSheetERK7QString@PLT
.LEHE94:
	leaq	-80(%rbp), %rax
	movq	%rax, %rdi
	call	_ZN7QStringD1Ev@PLT
	movl	$48, %edi
.LEHB95:
	call	_Znwm@PLT
.LEHE95:
	movq	%rax, %r12
	movl	$1, %r13d
	leaq	-80(%rbp), %rdx
	leaq	.LC20(%rip), %rax
	movq	%rax, %rsi
	movq	%rdx, %rdi
.LEHB96:
	call	_ZN7QStringC1EPKc@PLT
.LEHE96:
	leaq	-80(%rbp), %rax
	movl	$0, %edx
	movq	%rax, %rsi
	movq	%r12, %rdi
.LEHB97:
	call	_ZN11QPushButtonC1ERK7QStringP7QWidget@PLT
.LEHE97:
	movq	%r12, -264(%rbp)
	leaq	-80(%rbp), %rax
	movq	%rax, %rdi
	call	_ZN7QStringD1Ev@PLT
	movq	-264(%rbp), %rbx
	leaq	-80(%rbp), %rdx
	leaq	.LC21(%rip), %rax
	movq	%rax, %rsi
	movq	%rdx, %rdi
.LEHB98:
	call	_ZN7QStringC1EPKc@PLT
.LEHE98:
	leaq	-80(%rbp), %rax
	movq	%rax, %rsi
	movq	%rbx, %rdi
.LEHB99:
	call	_ZN7QWidget10setToolTipERK7QString@PLT
.LEHE99:
	leaq	-80(%rbp), %rax
	movq	%rax, %rdi
	call	_ZN7QStringD1Ev@PLT
	movq	-264(%rbp), %rax
	movl	$36, %esi
	movq	%rax, %rdi
.LEHB100:
	call	_ZN7QWidget16setMinimumHeightEi@PLT
	movq	-264(%rbp), %rbx
	leaq	-80(%rbp), %rdx
	leaq	.LC22(%rip), %rax
	movq	%rax, %rsi
	movq	%rdx, %rdi
	call	_ZN7QStringC1EPKc@PLT
.LEHE100:
	leaq	-80(%rbp), %rax
	movq	%rax, %rsi
	movq	%rbx, %rdi
.LEHB101:
	call	_ZN7QWidget13setStyleSheetERK7QString@PLT
.LEHE101:
	leaq	-80(%rbp), %rax
	movq	%rax, %rdi
	call	_ZN7QStringD1Ev@PLT
	movl	$48, %edi
.LEHB102:
	call	_Znwm@PLT
.LEHE102:
	movq	%rax, %r12
	movl	$1, %r13d
	leaq	-80(%rbp), %rdx
	leaq	.LC23(%rip), %rax
	movq	%rax, %rsi
	movq	%rdx, %rdi
.LEHB103:
	call	_ZN7QStringC1EPKc@PLT
.LEHE103:
	leaq	-80(%rbp), %rax
	movl	$0, %edx
	movq	%rax, %rsi
	movq	%r12, %rdi
.LEHB104:
	call	_ZN11QPushButtonC1ERK7QStringP7QWidget@PLT
.LEHE104:
	movq	%r12, -256(%rbp)
	leaq	-80(%rbp), %rax
	movq	%rax, %rdi
	call	_ZN7QStringD1Ev@PLT
	movq	-256(%rbp), %rbx
	leaq	-80(%rbp), %rdx
	leaq	.LC24(%rip), %rax
	movq	%rax, %rsi
	movq	%rdx, %rdi
.LEHB105:
	call	_ZN7QStringC1EPKc@PLT
.LEHE105:
	leaq	-80(%rbp), %rax
	movq	%rax, %rsi
	movq	%rbx, %rdi
.LEHB106:
	call	_ZN7QWidget10setToolTipERK7QString@PLT
.LEHE106:
	leaq	-80(%rbp), %rax
	movq	%rax, %rdi
	call	_ZN7QStringD1Ev@PLT
	movq	-256(%rbp), %rax
	movl	$36, %esi
	movq	%rax, %rdi
.LEHB107:
	call	_ZN7QWidget16setMinimumHeightEi@PLT
	movq	-256(%rbp), %rbx
	leaq	-80(%rbp), %rdx
	leaq	.LC25(%rip), %rax
	movq	%rax, %rsi
	movq	%rdx, %rdi
	call	_ZN7QStringC1EPKc@PLT
.LEHE107:
	leaq	-80(%rbp), %rax
	movq	%rax, %rsi
	movq	%rbx, %rdi
.LEHB108:
	call	_ZN7QWidget13setStyleSheetERK7QString@PLT
.LEHE108:
	leaq	-80(%rbp), %rax
	movq	%rax, %rdi
	call	_ZN7QStringD1Ev@PLT
	movq	-280(%rbp), %rbx
	leaq	-80(%rbp), %rax
	movq	%rax, %rdi
	call	_ZN6QFlagsIN2Qt13AlignmentFlagEEC1Ev@PLT
	movl	-80(%rbp), %eax
	movq	-272(%rbp), %rsi
	movl	%eax, %ecx
	movl	$0, %edx
	movq	%rbx, %rdi
.LEHB109:
	call	_ZN10QBoxLayout9addWidgetEP7QWidgeti6QFlagsIN2Qt13AlignmentFlagEE@PLT
	movq	-280(%rbp), %rbx
	leaq	-80(%rbp), %rax
	movq	%rax, %rdi
	call	_ZN6QFlagsIN2Qt13AlignmentFlagEEC1Ev@PLT
	movl	-80(%rbp), %eax
	movq	-264(%rbp), %rsi
	movl	%eax, %ecx
	movl	$0, %edx
	movq	%rbx, %rdi
	call	_ZN10QBoxLayout9addWidgetEP7QWidgeti6QFlagsIN2Qt13AlignmentFlagEE@PLT
	movq	-280(%rbp), %rbx
	leaq	-80(%rbp), %rax
	movq	%rax, %rdi
	call	_ZN6QFlagsIN2Qt13AlignmentFlagEEC1Ev@PLT
	movl	-80(%rbp), %eax
	movq	-256(%rbp), %rsi
	movl	%eax, %ecx
	movl	$0, %edx
	movq	%rbx, %rdi
	call	_ZN10QBoxLayout9addWidgetEP7QWidgeti6QFlagsIN2Qt13AlignmentFlagEE@PLT
	movq	-288(%rbp), %rcx
	movq	-280(%rbp), %rax
	movl	$0, %edx
	movq	%rax, %rsi
	movq	%rcx, %rdi
	call	_ZN10QBoxLayout9addLayoutEP7QLayouti@PLT
	movl	$48, %edi
	call	_Znwm@PLT
.LEHE109:
	movq	%rax, %r12
	movl	$1, %r13d
	movl	$0, %esi
	movq	%r12, %rdi
.LEHB110:
	call	_ZN11QListWidgetC1EP7QWidget@PLT
.LEHE110:
	movq	-360(%rbp), %rax
	movq	%r12, 96(%rax)
	movq	-360(%rbp), %rax
	movq	96(%rax), %rax
	movq	%rax, %rbx
	leaq	-80(%rbp), %rdx
	leaq	.LC26(%rip), %rax
	movq	%rax, %rsi
	movq	%rdx, %rdi
.LEHB111:
	call	_ZN7QStringC1EPKc@PLT
.LEHE111:
	leaq	-80(%rbp), %rax
	movq	%rax, %rsi
	movq	%rbx, %rdi
.LEHB112:
	call	_ZN7QWidget13setStyleSheetERK7QString@PLT
.LEHE112:
	leaq	-80(%rbp), %rax
	movq	%rax, %rdi
	call	_ZN7QStringD1Ev@PLT
	movq	-288(%rbp), %rbx
	leaq	-80(%rbp), %rax
	movq	%rax, %rdi
	call	_ZN6QFlagsIN2Qt13AlignmentFlagEEC1Ev@PLT
	movq	-360(%rbp), %rax
	movq	96(%rax), %rsi
	movl	-80(%rbp), %eax
	movl	%eax, %ecx
	movl	$0, %edx
	movq	%rbx, %rdi
.LEHB113:
	call	_ZN10QBoxLayout9addWidgetEP7QWidgeti6QFlagsIN2Qt13AlignmentFlagEE@PLT
	movq	_ZN10ChatWidget16onRefreshFriendsEv@GOTPCREL(%rip), %rax
	movq	%rax, %r14
	movl	$0, %r15d
	movq	_ZN15QAbstractButton7clickedEb@GOTPCREL(%rip), %rax
	movq	%rax, -896(%rbp)
	movq	$0, -888(%rbp)
	leaq	-80(%rbp), %rdi
	movq	-360(%rbp), %rdx
	movq	-272(%rbp), %rax
	pushq	%r15
	pushq	%r14
	movl	$0, %r9d
	movq	%rdx, %r8
	movq	-896(%rbp), %rdx
	movq	-888(%rbp), %rcx
	movq	%rax, %rsi
	call	_ZN7QObject7connectIM15QAbstractButtonFvbEM10ChatWidgetFvvEEEN11QMetaObject10ConnectionEPKN9QtPrivate15FunctionPointerIT_E6ObjectESB_PKNSA_IT0_E6ObjectESG_N2Qt14ConnectionTypeE@PLT
	addq	$16, %rsp
	leaq	-80(%rbp), %rax
	movq	%rax, %rdi
	call	_ZN11QMetaObject10ConnectionD1Ev@PLT
	movq	_ZN10ChatWidget11onAddFriendEv@GOTPCREL(%rip), %rax
	movq	%rax, -880(%rbp)
	movq	$0, -872(%rbp)
	movq	_ZN15QAbstractButton7clickedEb@GOTPCREL(%rip), %rax
	movq	%rax, -864(%rbp)
	movq	$0, -856(%rbp)
	leaq	-80(%rbp), %rdi
	movq	-360(%rbp), %rdx
	movq	-264(%rbp), %rax
	pushq	-872(%rbp)
	pushq	-880(%rbp)
	movl	$0, %r9d
	movq	%rdx, %r8
	movq	-864(%rbp), %rdx
	movq	-856(%rbp), %rcx
	movq	%rax, %rsi
	call	_ZN7QObject7connectIM15QAbstractButtonFvbEM10ChatWidgetFvvEEEN11QMetaObject10ConnectionEPKN9QtPrivate15FunctionPointerIT_E6ObjectESB_PKNSA_IT0_E6ObjectESG_N2Qt14ConnectionTypeE@PLT
	addq	$16, %rsp
	leaq	-80(%rbp), %rax
	movq	%rax, %rdi
	call	_ZN11QMetaObject10ConnectionD1Ev@PLT
	movq	_ZN10ChatWidget21onViewPendingRequestsEv@GOTPCREL(%rip), %rax
	movq	%rax, -848(%rbp)
	movq	$0, -840(%rbp)
	movq	_ZN15QAbstractButton7clickedEb@GOTPCREL(%rip), %rax
	movq	%rax, -832(%rbp)
	movq	$0, -824(%rbp)
	leaq	-80(%rbp), %rdi
	movq	-360(%rbp), %rdx
	movq	-256(%rbp), %rax
	pushq	-840(%rbp)
	pushq	-848(%rbp)
	movl	$0, %r9d
	movq	%rdx, %r8
	movq	-832(%rbp), %rdx
	movq	-824(%rbp), %rcx
	movq	%rax, %rsi
	call	_ZN7QObject7connectIM15QAbstractButtonFvbEM10ChatWidgetFvvEEEN11QMetaObject10ConnectionEPKN9QtPrivate15FunctionPointerIT_E6ObjectESB_PKNSA_IT0_E6ObjectESG_N2Qt14ConnectionTypeE@PLT
	addq	$16, %rsp
	leaq	-80(%rbp), %rax
	movq	%rax, %rdi
	call	_ZN11QMetaObject10ConnectionD1Ev@PLT
	movq	_ZN10ChatWidget16onFriendSelectedEP15QListWidgetItem@GOTPCREL(%rip), %rax
	movq	%rax, -816(%rbp)
	movq	$0, -808(%rbp)
	movq	_ZN11QListWidget11itemClickedEP15QListWidgetItem@GOTPCREL(%rip), %rax
	movq	%rax, -800(%rbp)
	movq	$0, -792(%rbp)
	movq	-360(%rbp), %rax
	movq	96(%rax), %rsi
	leaq	-80(%rbp), %rdi
	movq	-360(%rbp), %rax
	pushq	-808(%rbp)
	pushq	-816(%rbp)
	movl	$0, %r9d
	movq	%rax, %r8
	movq	-800(%rbp), %rdx
	movq	-792(%rbp), %rcx
	call	_ZN7QObject7connectIM11QListWidgetFvP15QListWidgetItemEM10ChatWidgetFvS3_EEEN11QMetaObject10ConnectionEPKN9QtPrivate15FunctionPointerIT_E6ObjectESD_PKNSC_IT0_E6ObjectESI_N2Qt14ConnectionTypeE@PLT
	addq	$16, %rsp
	leaq	-80(%rbp), %rax
	movq	%rax, %rdi
	call	_ZN11QMetaObject10ConnectionD1Ev@PLT
	movq	-360(%rbp), %rax
	movq	88(%rax), %rbx
	leaq	-80(%rbp), %rdx
	leaq	.LC27(%rip), %rax
	movq	%rax, %rsi
	movq	%rdx, %rdi
	call	_ZN7QStringC1EPKc@PLT
.LEHE113:
	leaq	-80(%rbp), %rdx
	movq	-296(%rbp), %rax
	movq	%rax, %rsi
	movq	%rbx, %rdi
.LEHB114:
	call	_ZN10QTabWidget6addTabEP7QWidgetRK7QString@PLT
.LEHE114:
	leaq	-80(%rbp), %rax
	movq	%rax, %rdi
	call	_ZN7QStringD1Ev@PLT
	movl	$48, %edi
.LEHB115:
	call	_Znwm@PLT
.LEHE115:
	movq	%rax, %r12
	movl	$1, %r13d
	leaq	-80(%rbp), %rax
	movq	%rax, %rdi
	call	_ZN6QFlagsIN2Qt10WindowTypeEEC1Ev@PLT
	movl	-80(%rbp), %eax
	movl	%eax, %edx
	movl	$0, %esi
	movq	%r12, %rdi
.LEHB116:
	call	_ZN7QWidgetC1EPS_6QFlagsIN2Qt10WindowTypeEE@PLT
.LEHE116:
	movq	%r12, -248(%rbp)
	movl	$32, %edi
.LEHB117:
	call	_Znwm@PLT
.LEHE117:
	movq	%rax, %r12
	movl	$1, %r13d
	movq	-248(%rbp), %rax
	movq	%rax, %rsi
	movq	%r12, %rdi
.LEHB118:
	call	_ZN11QVBoxLayoutC1EP7QWidget@PLT
.LEHE118:
	movq	%r12, -240(%rbp)
	movq	-240(%rbp), %rax
	movl	$5, %r8d
	movl	$8, %ecx
	movl	$10, %edx
	movl	$8, %esi
	movq	%rax, %rdi
.LEHB119:
	call	_ZN7QLayout18setContentsMarginsEiiii@PLT
	movq	-240(%rbp), %rax
	movl	$10, %esi
	movq	%rax, %rdi
	call	_ZN10QBoxLayout10setSpacingEi@PLT
	movl	$32, %edi
	call	_Znwm@PLT
.LEHE119:
	movq	%rax, %r12
	movl	$1, %r13d
	movq	%r12, %rdi
.LEHB120:
	call	_ZN11QHBoxLayoutC1Ev@PLT
.LEHE120:
	movq	%r12, -232(%rbp)
	movq	-232(%rbp), %rax
	movl	$6, %esi
	movq	%rax, %rdi
.LEHB121:
	call	_ZN10QBoxLayout10setSpacingEi@PLT
	movl	$48, %edi
	call	_Znwm@PLT
.LEHE121:
	movq	%rax, %r12
	movl	$1, %r13d
	leaq	-80(%rbp), %rdx
	leaq	.LC17(%rip), %rax
	movq	%rax, %rsi
	movq	%rdx, %rdi
.LEHB122:
	call	_ZN7QStringC1EPKc@PLT
.LEHE122:
	leaq	-80(%rbp), %rax
	movl	$0, %edx
	movq	%rax, %rsi
	movq	%r12, %rdi
.LEHB123:
	call	_ZN11QPushButtonC1ERK7QStringP7QWidget@PLT
.LEHE123:
	movq	%r12, -224(%rbp)
	leaq	-80(%rbp), %rax
	movq	%rax, %rdi
	call	_ZN7QStringD1Ev@PLT
	movq	-224(%rbp), %rbx
	leaq	-80(%rbp), %rdx
	leaq	.LC28(%rip), %rax
	movq	%rax, %rsi
	movq	%rdx, %rdi
.LEHB124:
	call	_ZN7QStringC1EPKc@PLT
.LEHE124:
	leaq	-80(%rbp), %rax
	movq	%rax, %rsi
	movq	%rbx, %rdi
.LEHB125:
	call	_ZN7QWidget10setToolTipERK7QString@PLT
.LEHE125:
	leaq	-80(%rbp), %rax
	movq	%rax, %rdi
	call	_ZN7QStringD1Ev@PLT
	movq	-224(%rbp), %rax
	movl	$36, %esi
	movq	%rax, %rdi
.LEHB126:
	call	_ZN7QWidget16setMinimumHeightEi@PLT
	movq	-224(%rbp), %rbx
	leaq	-80(%rbp), %rdx
	leaq	.LC29(%rip), %rax
	movq	%rax, %rsi
	movq	%rdx, %rdi
	call	_ZN7QStringC1EPKc@PLT
.LEHE126:
	leaq	-80(%rbp), %rax
	movq	%rax, %rsi
	movq	%rbx, %rdi
.LEHB127:
	call	_ZN7QWidget13setStyleSheetERK7QString@PLT
.LEHE127:
	leaq	-80(%rbp), %rax
	movq	%rax, %rdi
	call	_ZN7QStringD1Ev@PLT
	movl	$48, %edi
.LEHB128:
	call	_Znwm@PLT
.LEHE128:
	movq	%rax, %r12
	movl	$1, %r13d
	leaq	-80(%rbp), %rdx
	leaq	.LC30(%rip), %rax
	movq	%rax, %rsi
	movq	%rdx, %rdi
.LEHB129:
	call	_ZN7QStringC1EPKc@PLT
.LEHE129:
	leaq	-80(%rbp), %rax
	movl	$0, %edx
	movq	%rax, %rsi
	movq	%r12, %rdi
.LEHB130:
	call	_ZN11QPushButtonC1ERK7QStringP7QWidget@PLT
.LEHE130:
	movq	%r12, -216(%rbp)
	leaq	-80(%rbp), %rax
	movq	%rax, %rdi
	call	_ZN7QStringD1Ev@PLT
	movq	-216(%rbp), %rbx
	leaq	-80(%rbp), %rdx
	leaq	.LC31(%rip), %rax
	movq	%rax, %rsi
	movq	%rdx, %rdi
.LEHB131:
	call	_ZN7QStringC1EPKc@PLT
.LEHE131:
	leaq	-80(%rbp), %rax
	movq	%rax, %rsi
	movq	%rbx, %rdi
.LEHB132:
	call	_ZN7QWidget10setToolTipERK7QString@PLT
.LEHE132:
	leaq	-80(%rbp), %rax
	movq	%rax, %rdi
	call	_ZN7QStringD1Ev@PLT
	movq	-216(%rbp), %rax
	movl	$36, %esi
	movq	%rax, %rdi
.LEHB133:
	call	_ZN7QWidget16setMinimumHeightEi@PLT
	movq	-216(%rbp), %rbx
	leaq	-80(%rbp), %rdx
	leaq	.LC32(%rip), %rax
	movq	%rax, %rsi
	movq	%rdx, %rdi
	call	_ZN7QStringC1EPKc@PLT
.LEHE133:
	leaq	-80(%rbp), %rax
	movq	%rax, %rsi
	movq	%rbx, %rdi
.LEHB134:
	call	_ZN7QWidget13setStyleSheetERK7QString@PLT
.LEHE134:
	leaq	-80(%rbp), %rax
	movq	%rax, %rdi
	call	_ZN7QStringD1Ev@PLT
	movl	$48, %edi
.LEHB135:
	call	_Znwm@PLT
.LEHE135:
	movq	%rax, %r12
	movl	$1, %r13d
	leaq	-80(%rbp), %rdx
	leaq	.LC33(%rip), %rax
	movq	%rax, %rsi
	movq	%rdx, %rdi
.LEHB136:
	call	_ZN7QStringC1EPKc@PLT
.LEHE136:
	leaq	-80(%rbp), %rax
	movl	$0, %edx
	movq	%rax, %rsi
	movq	%r12, %rdi
.LEHB137:
	call	_ZN11QPushButtonC1ERK7QStringP7QWidget@PLT
.LEHE137:
	movq	%r12, -208(%rbp)
	leaq	-80(%rbp), %rax
	movq	%rax, %rdi
	call	_ZN7QStringD1Ev@PLT
	movq	-208(%rbp), %rbx
	leaq	-80(%rbp), %rdx
	leaq	.LC34(%rip), %rax
	movq	%rax, %rsi
	movq	%rdx, %rdi
.LEHB138:
	call	_ZN7QStringC1EPKc@PLT
.LEHE138:
	leaq	-80(%rbp), %rax
	movq	%rax, %rsi
	movq	%rbx, %rdi
.LEHB139:
	call	_ZN7QWidget10setToolTipERK7QString@PLT
.LEHE139:
	leaq	-80(%rbp), %rax
	movq	%rax, %rdi
	call	_ZN7QStringD1Ev@PLT
	movq	-208(%rbp), %rax
	movl	$36, %esi
	movq	%rax, %rdi
.LEHB140:
	call	_ZN7QWidget16setMinimumHeightEi@PLT
	movq	-208(%rbp), %rbx
	leaq	-80(%rbp), %rdx
	leaq	.LC35(%rip), %rax
	movq	%rax, %rsi
	movq	%rdx, %rdi
	call	_ZN7QStringC1EPKc@PLT
.LEHE140:
	leaq	-80(%rbp), %rax
	movq	%rax, %rsi
	movq	%rbx, %rdi
.LEHB141:
	call	_ZN7QWidget13setStyleSheetERK7QString@PLT
.LEHE141:
	leaq	-80(%rbp), %rax
	movq	%rax, %rdi
	call	_ZN7QStringD1Ev@PLT
	movl	$48, %edi
.LEHB142:
	call	_Znwm@PLT
.LEHE142:
	movq	%rax, %r12
	movl	$1, %r13d
	leaq	-80(%rbp), %rdx
	leaq	.LC36(%rip), %rax
	movq	%rax, %rsi
	movq	%rdx, %rdi
.LEHB143:
	call	_ZN7QStringC1EPKc@PLT
.LEHE143:
	leaq	-80(%rbp), %rax
	movl	$0, %edx
	movq	%rax, %rsi
	movq	%r12, %rdi
.LEHB144:
	call	_ZN11QPushButtonC1ERK7QStringP7QWidget@PLT
.LEHE144:
	movq	%r12, -200(%rbp)
	leaq	-80(%rbp), %rax
	movq	%rax, %rdi
	call	_ZN7QStringD1Ev@PLT
	movq	-200(%rbp), %rbx
	leaq	-80(%rbp), %rdx
	leaq	.LC37(%rip), %rax
	movq	%rax, %rsi
	movq	%rdx, %rdi
.LEHB145:
	call	_ZN7QStringC1EPKc@PLT
.LEHE145:
	leaq	-80(%rbp), %rax
	movq	%rax, %rsi
	movq	%rbx, %rdi
.LEHB146:
	call	_ZN7QWidget10setToolTipERK7QString@PLT
.LEHE146:
	leaq	-80(%rbp), %rax
	movq	%rax, %rdi
	call	_ZN7QStringD1Ev@PLT
	movq	-200(%rbp), %rax
	movl	$36, %esi
	movq	%rax, %rdi
.LEHB147:
	call	_ZN7QWidget16setMinimumHeightEi@PLT
	movq	-200(%rbp), %rbx
	leaq	-80(%rbp), %rdx
	leaq	.LC38(%rip), %rax
	movq	%rax, %rsi
	movq	%rdx, %rdi
	call	_ZN7QStringC1EPKc@PLT
.LEHE147:
	leaq	-80(%rbp), %rax
	movq	%rax, %rsi
	movq	%rbx, %rdi
.LEHB148:
	call	_ZN7QWidget13setStyleSheetERK7QString@PLT
.LEHE148:
	leaq	-80(%rbp), %rax
	movq	%rax, %rdi
	call	_ZN7QStringD1Ev@PLT
	movq	-232(%rbp), %rbx
	leaq	-80(%rbp), %rax
	movq	%rax, %rdi
	call	_ZN6QFlagsIN2Qt13AlignmentFlagEEC1Ev@PLT
	movl	-80(%rbp), %eax
	movq	-224(%rbp), %rsi
	movl	%eax, %ecx
	movl	$0, %edx
	movq	%rbx, %rdi
.LEHB149:
	call	_ZN10QBoxLayout9addWidgetEP7QWidgeti6QFlagsIN2Qt13AlignmentFlagEE@PLT
	movq	-232(%rbp), %rbx
	leaq	-80(%rbp), %rax
	movq	%rax, %rdi
	call	_ZN6QFlagsIN2Qt13AlignmentFlagEEC1Ev@PLT
	movl	-80(%rbp), %eax
	movq	-216(%rbp), %rsi
	movl	%eax, %ecx
	movl	$0, %edx
	movq	%rbx, %rdi
	call	_ZN10QBoxLayout9addWidgetEP7QWidgeti6QFlagsIN2Qt13AlignmentFlagEE@PLT
	movq	-232(%rbp), %rbx
	leaq	-80(%rbp), %rax
	movq	%rax, %rdi
	call	_ZN6QFlagsIN2Qt13AlignmentFlagEEC1Ev@PLT
	movl	-80(%rbp), %eax
	movq	-208(%rbp), %rsi
	movl	%eax, %ecx
	movl	$0, %edx
	movq	%rbx, %rdi
	call	_ZN10QBoxLayout9addWidgetEP7QWidgeti6QFlagsIN2Qt13AlignmentFlagEE@PLT
	movq	-232(%rbp), %rbx
	leaq	-80(%rbp), %rax
	movq	%rax, %rdi
	call	_ZN6QFlagsIN2Qt13AlignmentFlagEEC1Ev@PLT
	movl	-80(%rbp), %eax
	movq	-200(%rbp), %rsi
	movl	%eax, %ecx
	movl	$0, %edx
	movq	%rbx, %rdi
	call	_ZN10QBoxLayout9addWidgetEP7QWidgeti6QFlagsIN2Qt13AlignmentFlagEE@PLT
	movq	-240(%rbp), %rcx
	movq	-232(%rbp), %rax
	movl	$0, %edx
	movq	%rax, %rsi
	movq	%rcx, %rdi
	call	_ZN10QBoxLayout9addLayoutEP7QLayouti@PLT
	movl	$48, %edi
	call	_Znwm@PLT
.LEHE149:
	movq	%rax, %r12
	movl	$1, %r13d
	movl	$0, %esi
	movq	%r12, %rdi
.LEHB150:
	call	_ZN11QListWidgetC1EP7QWidget@PLT
.LEHE150:
	movq	-360(%rbp), %rax
	movq	%r12, 104(%rax)
	movq	-360(%rbp), %rax
	movq	104(%rax), %rax
	movq	%rax, %rbx
	leaq	-80(%rbp), %rdx
	leaq	.LC39(%rip), %rax
	movq	%rax, %rsi
	movq	%rdx, %rdi
.LEHB151:
	call	_ZN7QStringC1EPKc@PLT
.LEHE151:
	leaq	-80(%rbp), %rax
	movq	%rax, %rsi
	movq	%rbx, %rdi
.LEHB152:
	call	_ZN7QWidget13setStyleSheetERK7QString@PLT
.LEHE152:
	leaq	-80(%rbp), %rax
	movq	%rax, %rdi
	call	_ZN7QStringD1Ev@PLT
	movq	-240(%rbp), %rbx
	leaq	-80(%rbp), %rax
	movq	%rax, %rdi
	call	_ZN6QFlagsIN2Qt13AlignmentFlagEEC1Ev@PLT
	movq	-360(%rbp), %rax
	movq	104(%rax), %rsi
	movl	-80(%rbp), %eax
	movl	%eax, %ecx
	movl	$0, %edx
	movq	%rbx, %rdi
.LEHB153:
	call	_ZN10QBoxLayout9addWidgetEP7QWidgeti6QFlagsIN2Qt13AlignmentFlagEE@PLT
	movq	_ZN10ChatWidget15onRefreshGroupsEv@GOTPCREL(%rip), %rax
	movq	%rax, -784(%rbp)
	movq	$0, -776(%rbp)
	movq	_ZN15QAbstractButton7clickedEb@GOTPCREL(%rip), %rax
	movq	%rax, -768(%rbp)
	movq	$0, -760(%rbp)
	leaq	-80(%rbp), %rdi
	movq	-360(%rbp), %rdx
	movq	-224(%rbp), %rax
	pushq	-776(%rbp)
	pushq	-784(%rbp)
	movl	$0, %r9d
	movq	%rdx, %r8
	movq	-768(%rbp), %rdx
	movq	-760(%rbp), %rcx
	movq	%rax, %rsi
	call	_ZN7QObject7connectIM15QAbstractButtonFvbEM10ChatWidgetFvvEEEN11QMetaObject10ConnectionEPKN9QtPrivate15FunctionPointerIT_E6ObjectESB_PKNSA_IT0_E6ObjectESG_N2Qt14ConnectionTypeE@PLT
	addq	$16, %rsp
	leaq	-80(%rbp), %rax
	movq	%rax, %rdi
	call	_ZN11QMetaObject10ConnectionD1Ev@PLT
	movq	_ZN10ChatWidget13onCreateGroupEv@GOTPCREL(%rip), %rax
	movq	%rax, -752(%rbp)
	movq	$0, -744(%rbp)
	movq	_ZN15QAbstractButton7clickedEb@GOTPCREL(%rip), %rax
	movq	%rax, -736(%rbp)
	movq	$0, -728(%rbp)
	leaq	-80(%rbp), %rdi
	movq	-360(%rbp), %rdx
	movq	-216(%rbp), %rax
	pushq	-744(%rbp)
	pushq	-752(%rbp)
	movl	$0, %r9d
	movq	%rdx, %r8
	movq	-736(%rbp), %rdx
	movq	-728(%rbp), %rcx
	movq	%rax, %rsi
	call	_ZN7QObject7connectIM15QAbstractButtonFvbEM10ChatWidgetFvvEEEN11QMetaObject10ConnectionEPKN9QtPrivate15FunctionPointerIT_E6ObjectESB_PKNSA_IT0_E6ObjectESG_N2Qt14ConnectionTypeE@PLT
	addq	$16, %rsp
	leaq	-80(%rbp), %rax
	movq	%rax, %rdi
	call	_ZN11QMetaObject10ConnectionD1Ev@PLT
	movq	_ZN10ChatWidget11onJoinGroupEv@GOTPCREL(%rip), %rax
	movq	%rax, -720(%rbp)
	movq	$0, -712(%rbp)
	movq	_ZN15QAbstractButton7clickedEb@GOTPCREL(%rip), %rax
	movq	%rax, -704(%rbp)
	movq	$0, -696(%rbp)
	leaq	-80(%rbp), %rdi
	movq	-360(%rbp), %rdx
	movq	-208(%rbp), %rax
	pushq	-712(%rbp)
	pushq	-720(%rbp)
	movl	$0, %r9d
	movq	%rdx, %r8
	movq	-704(%rbp), %rdx
	movq	-696(%rbp), %rcx
	movq	%rax, %rsi
	call	_ZN7QObject7connectIM15QAbstractButtonFvbEM10ChatWidgetFvvEEEN11QMetaObject10ConnectionEPKN9QtPrivate15FunctionPointerIT_E6ObjectESB_PKNSA_IT0_E6ObjectESG_N2Qt14ConnectionTypeE@PLT
	addq	$16, %rsp
	leaq	-80(%rbp), %rax
	movq	%rax, %rdi
	call	_ZN11QMetaObject10ConnectionD1Ev@PLT
	movq	_ZN10ChatWidget12onLeaveGroupEv@GOTPCREL(%rip), %rax
	movq	%rax, -688(%rbp)
	movq	$0, -680(%rbp)
	movq	_ZN15QAbstractButton7clickedEb@GOTPCREL(%rip), %rax
	movq	%rax, -672(%rbp)
	movq	$0, -664(%rbp)
	leaq	-80(%rbp), %rdi
	movq	-360(%rbp), %rdx
	movq	-200(%rbp), %rax
	pushq	-680(%rbp)
	pushq	-688(%rbp)
	movl	$0, %r9d
	movq	%rdx, %r8
	movq	-672(%rbp), %rdx
	movq	-664(%rbp), %rcx
	movq	%rax, %rsi
	call	_ZN7QObject7connectIM15QAbstractButtonFvbEM10ChatWidgetFvvEEEN11QMetaObject10ConnectionEPKN9QtPrivate15FunctionPointerIT_E6ObjectESB_PKNSA_IT0_E6ObjectESG_N2Qt14ConnectionTypeE@PLT
	addq	$16, %rsp
	leaq	-80(%rbp), %rax
	movq	%rax, %rdi
	call	_ZN11QMetaObject10ConnectionD1Ev@PLT
	movq	_ZN10ChatWidget15onGroupSelectedEP15QListWidgetItem@GOTPCREL(%rip), %rax
	movq	%rax, -656(%rbp)
	movq	$0, -648(%rbp)
	movq	_ZN11QListWidget11itemClickedEP15QListWidgetItem@GOTPCREL(%rip), %rax
	movq	%rax, -640(%rbp)
	movq	$0, -632(%rbp)
	movq	-360(%rbp), %rax
	movq	104(%rax), %rsi
	leaq	-80(%rbp), %rdi
	movq	-360(%rbp), %rax
	pushq	-648(%rbp)
	pushq	-656(%rbp)
	movl	$0, %r9d
	movq	%rax, %r8
	movq	-640(%rbp), %rdx
	movq	-632(%rbp), %rcx
	call	_ZN7QObject7connectIM11QListWidgetFvP15QListWidgetItemEM10ChatWidgetFvS3_EEEN11QMetaObject10ConnectionEPKN9QtPrivate15FunctionPointerIT_E6ObjectESD_PKNSC_IT0_E6ObjectESI_N2Qt14ConnectionTypeE@PLT
	addq	$16, %rsp
	leaq	-80(%rbp), %rax
	movq	%rax, %rdi
	call	_ZN11QMetaObject10ConnectionD1Ev@PLT
	movq	-360(%rbp), %rax
	movq	88(%rax), %rbx
	leaq	-80(%rbp), %rdx
	leaq	.LC40(%rip), %rax
	movq	%rax, %rsi
	movq	%rdx, %rdi
	call	_ZN7QStringC1EPKc@PLT
.LEHE153:
	leaq	-80(%rbp), %rdx
	movq	-248(%rbp), %rax
	movq	%rax, %rsi
	movq	%rbx, %rdi
.LEHB154:
	call	_ZN10QTabWidget6addTabEP7QWidgetRK7QString@PLT
.LEHE154:
	leaq	-80(%rbp), %rax
	movq	%rax, %rdi
	call	_ZN7QStringD1Ev@PLT
	movl	$48, %edi
.LEHB155:
	call	_Znwm@PLT
.LEHE155:
	movq	%rax, %r12
	movl	$1, %r13d
	leaq	-80(%rbp), %rax
	movq	%rax, %rdi
	call	_ZN6QFlagsIN2Qt10WindowTypeEEC1Ev@PLT
	movl	-80(%rbp), %eax
	movl	%eax, %edx
	movl	$0, %esi
	movq	%r12, %rdi
.LEHB156:
	call	_ZN7QWidgetC1EPS_6QFlagsIN2Qt10WindowTypeEE@PLT
.LEHE156:
	movq	%r12, -192(%rbp)
	movl	$32, %edi
.LEHB157:
	call	_Znwm@PLT
.LEHE157:
	movq	%rax, %r12
	movl	$1, %r13d
	movq	-192(%rbp), %rax
	movq	%rax, %rsi
	movq	%r12, %rdi
.LEHB158:
	call	_ZN11QVBoxLayoutC1EP7QWidget@PLT
.LEHE158:
	movq	%r12, -184(%rbp)
	movq	-184(%rbp), %rax
	movl	$20, %r8d
	movl	$15, %ecx
	movl	$20, %edx
	movl	$15, %esi
	movq	%rax, %rdi
.LEHB159:
	call	_ZN7QLayout18setContentsMarginsEiiii@PLT
	movq	-184(%rbp), %rax
	movl	$15, %esi
	movq	%rax, %rdi
	call	_ZN10QBoxLayout10setSpacingEi@PLT
	movl	$48, %edi
	call	_Znwm@PLT
.LEHE159:
	movq	%rax, %r12
	movl	$1, %r13d
	leaq	-80(%rbp), %rax
	movq	%rax, %rdi
	call	_ZN6QFlagsIN2Qt10WindowTypeEEC1Ev@PLT
	movl	-80(%rbp), %eax
	movl	%eax, %edx
	movl	$0, %esi
	movq	%r12, %rdi
.LEHB160:
	call	_ZN6QLabelC1EP7QWidget6QFlagsIN2Qt10WindowTypeEE@PLT
.LEHE160:
	movq	%r12, -176(%rbp)
	movq	-176(%rbp), %rbx
	leaq	-80(%rbp), %rdx
	leaq	.LC41(%rip), %rax
	movq	%rax, %rsi
	movq	%rdx, %rdi
.LEHB161:
	call	_ZN7QStringC1EPKc@PLT
.LEHE161:
	leaq	-80(%rbp), %rax
	movq	%rax, %rsi
	movq	%rbx, %rdi
.LEHB162:
	call	_ZN6QLabel7setTextERK7QString@PLT
.LEHE162:
	leaq	-80(%rbp), %rax
	movq	%rax, %rdi
	call	_ZN7QStringD1Ev@PLT
	movq	-176(%rbp), %rbx
	leaq	-80(%rbp), %rdx
	leaq	.LC42(%rip), %rax
	movq	%rax, %rsi
	movq	%rdx, %rdi
.LEHB163:
	call	_ZN7QStringC1EPKc@PLT
.LEHE163:
	leaq	-80(%rbp), %rax
	movq	%rax, %rsi
	movq	%rbx, %rdi
.LEHB164:
	call	_ZN7QWidget13setStyleSheetERK7QString@PLT
.LEHE164:
	leaq	-80(%rbp), %rax
	movq	%rax, %rdi
	call	_ZN7QStringD1Ev@PLT
	movq	-176(%rbp), %rbx
	leaq	-80(%rbp), %rax
	movl	$132, %esi
	movq	%rax, %rdi
	call	_ZN6QFlagsIN2Qt13AlignmentFlagEEC1ES1_@PLT
	movl	-80(%rbp), %eax
	movl	%eax, %esi
	movq	%rbx, %rdi
.LEHB165:
	call	_ZN6QLabel12setAlignmentE6QFlagsIN2Qt13AlignmentFlagEE@PLT
	movq	-184(%rbp), %rbx
	leaq	-80(%rbp), %rax
	movq	%rax, %rdi
	call	_ZN6QFlagsIN2Qt13AlignmentFlagEEC1Ev@PLT
	movl	-80(%rbp), %eax
	movq	-176(%rbp), %rsi
	movl	%eax, %ecx
	movl	$0, %edx
	movq	%rbx, %rdi
	call	_ZN10QBoxLayout9addWidgetEP7QWidgeti6QFlagsIN2Qt13AlignmentFlagEE@PLT
	movl	$48, %edi
	call	_Znwm@PLT
.LEHE165:
	movq	%rax, %r12
	movl	$1, %r13d
	leaq	-80(%rbp), %rax
	movq	%rax, %rdi
	call	_ZN6QFlagsIN2Qt10WindowTypeEEC1Ev@PLT
	movq	-360(%rbp), %rax
	leaq	56(%rax), %rsi
	movl	-80(%rbp), %eax
	movl	%eax, %ecx
	movl	$0, %edx
	movq	%r12, %rdi
.LEHB166:
	call	_ZN6QLabelC1ERK7QStringP7QWidget6QFlagsIN2Qt10WindowTypeEE@PLT
.LEHE166:
	movq	%r12, -168(%rbp)
	movq	-168(%rbp), %rbx
	leaq	-80(%rbp), %rdx
	leaq	.LC43(%rip), %rax
	movq	%rax, %rsi
	movq	%rdx, %rdi
.LEHB167:
	call	_ZN7QStringC1EPKc@PLT
.LEHE167:
	leaq	-80(%rbp), %rax
	movq	%rax, %rsi
	movq	%rbx, %rdi
.LEHB168:
	call	_ZN7QWidget13setStyleSheetERK7QString@PLT
.LEHE168:
	leaq	-80(%rbp), %rax
	movq	%rax, %rdi
	call	_ZN7QStringD1Ev@PLT
	movq	-168(%rbp), %rbx
	leaq	-80(%rbp), %rax
	movl	$132, %esi
	movq	%rax, %rdi
	call	_ZN6QFlagsIN2Qt13AlignmentFlagEEC1ES1_@PLT
	movl	-80(%rbp), %eax
	movl	%eax, %esi
	movq	%rbx, %rdi
.LEHB169:
	call	_ZN6QLabel12setAlignmentE6QFlagsIN2Qt13AlignmentFlagEE@PLT
	movq	-184(%rbp), %rbx
	leaq	-80(%rbp), %rax
	movq	%rax, %rdi
	call	_ZN6QFlagsIN2Qt13AlignmentFlagEEC1Ev@PLT
	movl	-80(%rbp), %eax
	movq	-168(%rbp), %rsi
	movl	%eax, %ecx
	movl	$0, %edx
	movq	%rbx, %rdi
	call	_ZN10QBoxLayout9addWidgetEP7QWidgeti6QFlagsIN2Qt13AlignmentFlagEE@PLT
	movl	$48, %edi
	call	_Znwm@PLT
.LEHE169:
	movq	%rax, %r12
	movl	$1, %r13d
	leaq	-336(%rbp), %rax
	movq	%rax, %rdi
	call	_ZN6QFlagsIN2Qt10WindowTypeEEC1Ev@PLT
	leaq	-80(%rbp), %rdx
	leaq	.LC44(%rip), %rax
	movq	%rax, %rsi
	movq	%rdx, %rdi
.LEHB170:
	call	_ZN7QStringC1EPKc@PLT
.LEHE170:
	movl	-336(%rbp), %eax
	leaq	-80(%rbp), %rsi
	movl	%eax, %ecx
	movl	$0, %edx
	movq	%r12, %rdi
.LEHB171:
	call	_ZN6QLabelC1ERK7QStringP7QWidget6QFlagsIN2Qt10WindowTypeEE@PLT
.LEHE171:
	movq	%r12, -160(%rbp)
	leaq	-80(%rbp), %rax
	movq	%rax, %rdi
	call	_ZN7QStringD1Ev@PLT
	movq	-160(%rbp), %rbx
	leaq	-80(%rbp), %rdx
	leaq	.LC45(%rip), %rax
	movq	%rax, %rsi
	movq	%rdx, %rdi
.LEHB172:
	call	_ZN7QStringC1EPKc@PLT
.LEHE172:
	leaq	-80(%rbp), %rax
	movq	%rax, %rsi
	movq	%rbx, %rdi
.LEHB173:
	call	_ZN7QWidget13setStyleSheetERK7QString@PLT
.LEHE173:
	leaq	-80(%rbp), %rax
	movq	%rax, %rdi
	call	_ZN7QStringD1Ev@PLT
	movq	-160(%rbp), %rbx
	leaq	-80(%rbp), %rax
	movl	$132, %esi
	movq	%rax, %rdi
	call	_ZN6QFlagsIN2Qt13AlignmentFlagEEC1ES1_@PLT
	movl	-80(%rbp), %eax
	movl	%eax, %esi
	movq	%rbx, %rdi
.LEHB174:
	call	_ZN6QLabel12setAlignmentE6QFlagsIN2Qt13AlignmentFlagEE@PLT
	movq	-184(%rbp), %rbx
	leaq	-80(%rbp), %rax
	movq	%rax, %rdi
	call	_ZN6QFlagsIN2Qt13AlignmentFlagEEC1Ev@PLT
	movl	-80(%rbp), %eax
	movq	-160(%rbp), %rsi
	movl	%eax, %ecx
	movl	$0, %edx
	movq	%rbx, %rdi
	call	_ZN10QBoxLayout9addWidgetEP7QWidgeti6QFlagsIN2Qt13AlignmentFlagEE@PLT
	movq	-184(%rbp), %rax
	movl	$0, %esi
	movq	%rax, %rdi
	call	_ZN10QBoxLayout10addStretchEi@PLT
	movl	$48, %edi
	call	_Znwm@PLT
.LEHE174:
	movq	%rax, %r12
	movl	$1, %r13d
	leaq	-80(%rbp), %rdx
	leaq	.LC46(%rip), %rax
	movq	%rax, %rsi
	movq	%rdx, %rdi
.LEHB175:
	call	_ZN7QStringC1EPKc@PLT
.LEHE175:
	leaq	-80(%rbp), %rax
	movl	$0, %edx
	movq	%rax, %rsi
	movq	%r12, %rdi
.LEHB176:
	call	_ZN11QPushButtonC1ERK7QStringP7QWidget@PLT
.LEHE176:
	movq	%r12, -152(%rbp)
	leaq	-80(%rbp), %rax
	movq	%rax, %rdi
	call	_ZN7QStringD1Ev@PLT
	movq	-152(%rbp), %rbx
	leaq	-80(%rbp), %rdx
	leaq	.LC47(%rip), %rax
	movq	%rax, %rsi
	movq	%rdx, %rdi
.LEHB177:
	call	_ZN7QStringC1EPKc@PLT
.LEHE177:
	leaq	-80(%rbp), %rax
	movq	%rax, %rsi
	movq	%rbx, %rdi
.LEHB178:
	call	_ZN7QWidget13setStyleSheetERK7QString@PLT
.LEHE178:
	leaq	-80(%rbp), %rax
	movq	%rax, %rdi
	call	_ZN7QStringD1Ev@PLT
	movq	_ZN10ChatWidget16onChangePasswordEv@GOTPCREL(%rip), %rax
	movq	%rax, -624(%rbp)
	movq	$0, -616(%rbp)
	movq	_ZN15QAbstractButton7clickedEb@GOTPCREL(%rip), %rax
	movq	%rax, -608(%rbp)
	movq	$0, -600(%rbp)
	leaq	-80(%rbp), %rdi
	movq	-360(%rbp), %rdx
	movq	-152(%rbp), %rax
	pushq	-616(%rbp)
	pushq	-624(%rbp)
	movl	$0, %r9d
	movq	%rdx, %r8
	movq	-608(%rbp), %rdx
	movq	-600(%rbp), %rcx
	movq	%rax, %rsi
.LEHB179:
	call	_ZN7QObject7connectIM15QAbstractButtonFvbEM10ChatWidgetFvvEEEN11QMetaObject10ConnectionEPKN9QtPrivate15FunctionPointerIT_E6ObjectESB_PKNSA_IT0_E6ObjectESG_N2Qt14ConnectionTypeE@PLT
	addq	$16, %rsp
	leaq	-80(%rbp), %rax
	movq	%rax, %rdi
	call	_ZN11QMetaObject10ConnectionD1Ev@PLT
	movq	-184(%rbp), %rbx
	leaq	-80(%rbp), %rax
	movq	%rax, %rdi
	call	_ZN6QFlagsIN2Qt13AlignmentFlagEEC1Ev@PLT
	movl	-80(%rbp), %eax
	movq	-152(%rbp), %rsi
	movl	%eax, %ecx
	movl	$0, %edx
	movq	%rbx, %rdi
	call	_ZN10QBoxLayout9addWidgetEP7QWidgeti6QFlagsIN2Qt13AlignmentFlagEE@PLT
	movl	$48, %edi
	call	_Znwm@PLT
.LEHE179:
	movq	%rax, %r12
	movl	$1, %r13d
	leaq	-80(%rbp), %rdx
	leaq	.LC48(%rip), %rax
	movq	%rax, %rsi
	movq	%rdx, %rdi
.LEHB180:
	call	_ZN7QStringC1EPKc@PLT
.LEHE180:
	leaq	-80(%rbp), %rax
	movl	$0, %edx
	movq	%rax, %rsi
	movq	%r12, %rdi
.LEHB181:
	call	_ZN11QPushButtonC1ERK7QStringP7QWidget@PLT
.LEHE181:
	movq	%r12, -144(%rbp)
	leaq	-80(%rbp), %rax
	movq	%rax, %rdi
	call	_ZN7QStringD1Ev@PLT
	movq	-144(%rbp), %rbx
	leaq	-80(%rbp), %rdx
	leaq	.LC49(%rip), %rax
	movq	%rax, %rsi
	movq	%rdx, %rdi
.LEHB182:
	call	_ZN7QStringC1EPKc@PLT
.LEHE182:
	leaq	-80(%rbp), %rax
	movq	%rax, %rsi
	movq	%rbx, %rdi
.LEHB183:
	call	_ZN7QWidget13setStyleSheetERK7QString@PLT
.LEHE183:
	leaq	-80(%rbp), %rax
	movq	%rax, %rdi
	call	_ZN7QStringD1Ev@PLT
	movq	_ZN10ChatWidget8onLogoutEv@GOTPCREL(%rip), %rax
	movq	%rax, -592(%rbp)
	movq	$0, -584(%rbp)
	movq	_ZN15QAbstractButton7clickedEb@GOTPCREL(%rip), %rax
	movq	%rax, -576(%rbp)
	movq	$0, -568(%rbp)
	leaq	-80(%rbp), %rdi
	movq	-360(%rbp), %rdx
	movq	-144(%rbp), %rax
	pushq	-584(%rbp)
	pushq	-592(%rbp)
	movl	$0, %r9d
	movq	%rdx, %r8
	movq	-576(%rbp), %rdx
	movq	-568(%rbp), %rcx
	movq	%rax, %rsi
.LEHB184:
	call	_ZN7QObject7connectIM15QAbstractButtonFvbEM10ChatWidgetFvvEEEN11QMetaObject10ConnectionEPKN9QtPrivate15FunctionPointerIT_E6ObjectESB_PKNSA_IT0_E6ObjectESG_N2Qt14ConnectionTypeE@PLT
	addq	$16, %rsp
	leaq	-80(%rbp), %rax
	movq	%rax, %rdi
	call	_ZN11QMetaObject10ConnectionD1Ev@PLT
	movq	-184(%rbp), %rbx
	leaq	-80(%rbp), %rax
	movq	%rax, %rdi
	call	_ZN6QFlagsIN2Qt13AlignmentFlagEEC1Ev@PLT
	movl	-80(%rbp), %eax
	movq	-144(%rbp), %rsi
	movl	%eax, %ecx
	movl	$0, %edx
	movq	%rbx, %rdi
	call	_ZN10QBoxLayout9addWidgetEP7QWidgeti6QFlagsIN2Qt13AlignmentFlagEE@PLT
	movq	-360(%rbp), %rax
	movq	88(%rax), %rbx
	leaq	-80(%rbp), %rdx
	leaq	.LC50(%rip), %rax
	movq	%rax, %rsi
	movq	%rdx, %rdi
	call	_ZN7QStringC1EPKc@PLT
.LEHE184:
	leaq	-80(%rbp), %rdx
	movq	-192(%rbp), %rax
	movq	%rax, %rsi
	movq	%rbx, %rdi
.LEHB185:
	call	_ZN10QTabWidget6addTabEP7QWidgetRK7QString@PLT
.LEHE185:
	leaq	-80(%rbp), %rax
	movq	%rax, %rdi
	call	_ZN7QStringD1Ev@PLT
	movq	-312(%rbp), %rbx
	leaq	-80(%rbp), %rax
	movq	%rax, %rdi
	call	_ZN6QFlagsIN2Qt13AlignmentFlagEEC1Ev@PLT
	movq	-360(%rbp), %rax
	movq	88(%rax), %rsi
	movl	-80(%rbp), %eax
	movl	%eax, %ecx
	movl	$0, %edx
	movq	%rbx, %rdi
.LEHB186:
	call	_ZN10QBoxLayout9addWidgetEP7QWidgeti6QFlagsIN2Qt13AlignmentFlagEE@PLT
	movl	$48, %edi
	call	_Znwm@PLT
.LEHE186:
	movq	%rax, %r12
	movl	$1, %r13d
	leaq	-80(%rbp), %rax
	movq	%rax, %rdi
	call	_ZN6QFlagsIN2Qt10WindowTypeEEC1Ev@PLT
	movl	-80(%rbp), %eax
	movl	%eax, %edx
	movl	$0, %esi
	movq	%r12, %rdi
.LEHB187:
	call	_ZN7QWidgetC1EPS_6QFlagsIN2Qt10WindowTypeEE@PLT
.LEHE187:
	movq	%r12, -136(%rbp)
	movq	-136(%rbp), %rbx
	leaq	-80(%rbp), %rdx
	leaq	.LC51(%rip), %rax
	movq	%rax, %rsi
	movq	%rdx, %rdi
.LEHB188:
	call	_ZN7QStringC1EPKc@PLT
.LEHE188:
	leaq	-80(%rbp), %rax
	movq	%rax, %rsi
	movq	%rbx, %rdi
.LEHB189:
	call	_ZN7QWidget13setStyleSheetERK7QString@PLT
.LEHE189:
	leaq	-80(%rbp), %rax
	movq	%rax, %rdi
	call	_ZN7QStringD1Ev@PLT
	movl	$32, %edi
.LEHB190:
	call	_Znwm@PLT
.LEHE190:
	movq	%rax, %r12
	movl	$1, %r13d
	movq	-136(%rbp), %rax
	movq	%rax, %rsi
	movq	%r12, %rdi
.LEHB191:
	call	_ZN11QVBoxLayoutC1EP7QWidget@PLT
.LEHE191:
	movq	%r12, -128(%rbp)
	movl	$48, %edi
.LEHB192:
	call	_Znwm@PLT
.LEHE192:
	movq	%rax, %r12
	movl	$1, %r13d
	leaq	-80(%rbp), %rax
	movq	%rax, %rdi
	call	_ZN6QFlagsIN2Qt10WindowTypeEEC1Ev@PLT
	movl	-80(%rbp), %eax
	movl	%eax, %edx
	movl	$0, %esi
	movq	%r12, %rdi
.LEHB193:
	call	_ZN7QWidgetC1EPS_6QFlagsIN2Qt10WindowTypeEE@PLT
.LEHE193:
	movq	%r12, -120(%rbp)
	movq	-120(%rbp), %rbx
	leaq	-80(%rbp), %rdx
	leaq	.LC52(%rip), %rax
	movq	%rax, %rsi
	movq	%rdx, %rdi
.LEHB194:
	call	_ZN7QStringC1EPKc@PLT
.LEHE194:
	leaq	-80(%rbp), %rax
	movq	%rax, %rsi
	movq	%rbx, %rdi
.LEHB195:
	call	_ZN7QWidget13setStyleSheetERK7QString@PLT
.LEHE195:
	leaq	-80(%rbp), %rax
	movq	%rax, %rdi
	call	_ZN7QStringD1Ev@PLT
	movl	$32, %edi
.LEHB196:
	call	_Znwm@PLT
.LEHE196:
	movq	%rax, %r12
	movl	$1, %r13d
	movq	-120(%rbp), %rax
	movq	%rax, %rsi
	movq	%r12, %rdi
.LEHB197:
	call	_ZN11QHBoxLayoutC1EP7QWidget@PLT
.LEHE197:
	movq	%r12, -112(%rbp)
	movq	-112(%rbp), %rax
	movl	$10, %r8d
	movl	$15, %ecx
	movl	$10, %edx
	movl	$15, %esi
	movq	%rax, %rdi
.LEHB198:
	call	_ZN7QLayout18setContentsMarginsEiiii@PLT
	movl	$48, %edi
	call	_Znwm@PLT
.LEHE198:
	movq	%rax, %r12
	movl	$1, %r13d
	leaq	-336(%rbp), %rax
	movq	%rax, %rdi
	call	_ZN6QFlagsIN2Qt10WindowTypeEEC1Ev@PLT
	leaq	-80(%rbp), %rdx
	leaq	.LC53(%rip), %rax
	movq	%rax, %rsi
	movq	%rdx, %rdi
.LEHB199:
	call	_ZN7QStringC1EPKc@PLT
.LEHE199:
	movl	-336(%rbp), %eax
	leaq	-80(%rbp), %rsi
	movl	%eax, %ecx
	movl	$0, %edx
	movq	%r12, %rdi
.LEHB200:
	call	_ZN6QLabelC1ERK7QStringP7QWidget6QFlagsIN2Qt10WindowTypeEE@PLT
.LEHE200:
	movq	-360(%rbp), %rax
	movq	%r12, 112(%rax)
	leaq	-80(%rbp), %rax
	movq	%rax, %rdi
	call	_ZN7QStringD1Ev@PLT
	movq	-360(%rbp), %rax
	movq	112(%rax), %rax
	movq	%rax, %rbx
	leaq	-80(%rbp), %rdx
	leaq	.LC54(%rip), %rax
	movq	%rax, %rsi
	movq	%rdx, %rdi
.LEHB201:
	call	_ZN7QStringC1EPKc@PLT
.LEHE201:
	leaq	-80(%rbp), %rax
	movq	%rax, %rsi
	movq	%rbx, %rdi
.LEHB202:
	call	_ZN7QWidget13setStyleSheetERK7QString@PLT
.LEHE202:
	leaq	-80(%rbp), %rax
	movq	%rax, %rdi
	call	_ZN7QStringD1Ev@PLT
	movq	-112(%rbp), %rbx
	leaq	-80(%rbp), %rax
	movq	%rax, %rdi
	call	_ZN6QFlagsIN2Qt13AlignmentFlagEEC1Ev@PLT
	movq	-360(%rbp), %rax
	movq	112(%rax), %rsi
	movl	-80(%rbp), %eax
	movl	%eax, %ecx
	movl	$0, %edx
	movq	%rbx, %rdi
.LEHB203:
	call	_ZN10QBoxLayout9addWidgetEP7QWidgeti6QFlagsIN2Qt13AlignmentFlagEE@PLT
	movq	-112(%rbp), %rax
	movl	$0, %esi
	movq	%rax, %rdi
	call	_ZN10QBoxLayout10addStretchEi@PLT
	movl	$48, %edi
	call	_Znwm@PLT
.LEHE203:
	movq	%rax, %r12
	movl	$1, %r13d
	movl	$0, %esi
	movq	%r12, %rdi
.LEHB204:
	call	_ZN11QToolButtonC1EP7QWidget@PLT
.LEHE204:
	movq	-360(%rbp), %rax
	movq	%r12, 120(%rax)
	movq	-360(%rbp), %rax
	movq	120(%rax), %rax
	movq	%rax, %rbx
	leaq	-80(%rbp), %rdx
	leaq	.LC55(%rip), %rax
	movq	%rax, %rsi
	movq	%rdx, %rdi
.LEHB205:
	call	_ZN7QStringC1EPKc@PLT
.LEHE205:
	leaq	-80(%rbp), %rax
	movq	%rax, %rsi
	movq	%rbx, %rdi
.LEHB206:
	call	_ZN15QAbstractButton7setTextERK7QString@PLT
.LEHE206:
	leaq	-80(%rbp), %rax
	movq	%rax, %rdi
	call	_ZN7QStringD1Ev@PLT
	movq	-360(%rbp), %rax
	movq	120(%rax), %rax
	movq	%rax, %rbx
	leaq	-80(%rbp), %rdx
	leaq	.LC56(%rip), %rax
	movq	%rax, %rsi
	movq	%rdx, %rdi
.LEHB207:
	call	_ZN7QStringC1EPKc@PLT
.LEHE207:
	leaq	-80(%rbp), %rax
	movq	%rax, %rsi
	movq	%rbx, %rdi
.LEHB208:
	call	_ZN7QWidget13setStyleSheetERK7QString@PLT
.LEHE208:
	leaq	-80(%rbp), %rax
	movq	%rax, %rdi
	call	_ZN7QStringD1Ev@PLT
	movq	-360(%rbp), %rax
	movq	120(%rax), %rax
	movl	$2, %esi
	movq	%rax, %rdi
.LEHB209:
	call	_ZN11QToolButton12setPopupModeENS_19ToolButtonPopupModeE@PLT
	movq	-360(%rbp), %rax
	movq	120(%rax), %rax
	movq	(%rax), %rax
	addq	$104, %rax
	movq	(%rax), %rdx
	movq	-360(%rbp), %rax
	movq	120(%rax), %rax
	movl	$0, %esi
	movq	%rax, %rdi
	call	*%rdx
	movl	$48, %edi
	call	_Znwm@PLT
.LEHE209:
	movq	%rax, %r12
	movl	$1, %r13d
	movq	-360(%rbp), %rax
	movq	%rax, %rsi
	movq	%r12, %rdi
.LEHB210:
	call	_ZN5QMenuC1EP7QWidget@PLT
.LEHE210:
	movq	-360(%rbp), %rax
	movq	%r12, 128(%rax)
	movq	-360(%rbp), %rax
	movq	128(%rax), %rax
	movq	%rax, %rbx
	leaq	-80(%rbp), %rdx
	leaq	.LC57(%rip), %rax
	movq	%rax, %rsi
	movq	%rdx, %rdi
.LEHB211:
	call	_ZN7QStringC1EPKc@PLT
.LEHE211:
	leaq	-80(%rbp), %rax
	movq	%rax, %rsi
	movq	%rbx, %rdi
.LEHB212:
	call	_ZN7QWidget13setStyleSheetERK7QString@PLT
.LEHE212:
	leaq	-80(%rbp), %rax
	movq	%rax, %rdi
	call	_ZN7QStringD1Ev@PLT
	movq	-360(%rbp), %rax
	movq	128(%rax), %rbx
	leaq	-80(%rbp), %rdx
	leaq	.LC58(%rip), %rax
	movq	%rax, %rsi
	movq	%rdx, %rdi
.LEHB213:
	call	_ZN7QStringC1EPKc@PLT
.LEHE213:
	leaq	-80(%rbp), %rax
	movq	%rax, %rsi
	movq	%rbx, %rdi
.LEHB214:
	call	_ZN5QMenu9addActionERK7QString@PLT
.LEHE214:
	movq	%rax, -104(%rbp)
	leaq	-80(%rbp), %rax
	movq	%rax, %rdi
	call	_ZN7QStringD1Ev@PLT
	movq	-360(%rbp), %rax
	movq	128(%rax), %rax
	movq	%rax, %rdi
.LEHB215:
	call	_ZN5QMenu12addSeparatorEv@PLT
	movq	-360(%rbp), %rax
	movq	128(%rax), %rbx
	leaq	-80(%rbp), %rdx
	leaq	.LC59(%rip), %rax
	movq	%rax, %rsi
	movq	%rdx, %rdi
	call	_ZN7QStringC1EPKc@PLT
.LEHE215:
	leaq	-80(%rbp), %rax
	movq	%rax, %rsi
	movq	%rbx, %rdi
.LEHB216:
	call	_ZN5QMenu9addActionERK7QString@PLT
.LEHE216:
	movq	%rax, -96(%rbp)
	leaq	-80(%rbp), %rax
	movq	%rax, %rdi
	call	_ZN7QStringD1Ev@PLT
	movq	-360(%rbp), %rax
	movq	120(%rax), %rdx
	movq	-360(%rbp), %rax
	movq	128(%rax), %rax
	movq	%rax, %rsi
	movq	%rdx, %rdi
.LEHB217:
	call	_ZN11QToolButton7setMenuEP5QMenu@PLT
	movq	-112(%rbp), %rbx
	leaq	-80(%rbp), %rax
	movq	%rax, %rdi
	call	_ZN6QFlagsIN2Qt13AlignmentFlagEEC1Ev@PLT
	movq	-360(%rbp), %rax
	movq	120(%rax), %rsi
	movl	-80(%rbp), %eax
	movl	%eax, %ecx
	movl	$0, %edx
	movq	%rbx, %rdi
	call	_ZN10QBoxLayout9addWidgetEP7QWidgeti6QFlagsIN2Qt13AlignmentFlagEE@PLT
	movq	_ZN10ChatWidget18onViewGroupMembersEv@GOTPCREL(%rip), %rax
	movq	%rax, -560(%rbp)
	movq	$0, -552(%rbp)
	movq	_ZN7QAction9triggeredEb@GOTPCREL(%rip), %rax
	movq	%rax, -544(%rbp)
	movq	$0, -536(%rbp)
	leaq	-80(%rbp), %rdi
	movq	-360(%rbp), %rdx
	movq	-104(%rbp), %rax
	pushq	-552(%rbp)
	pushq	-560(%rbp)
	movl	$0, %r9d
	movq	%rdx, %r8
	movq	-544(%rbp), %rdx
	movq	-536(%rbp), %rcx
	movq	%rax, %rsi
	call	_ZN7QObject7connectIM7QActionFvbEM10ChatWidgetFvvEEEN11QMetaObject10ConnectionEPKN9QtPrivate15FunctionPointerIT_E6ObjectESB_PKNSA_IT0_E6ObjectESG_N2Qt14ConnectionTypeE@PLT
	addq	$16, %rsp
	leaq	-80(%rbp), %rax
	movq	%rax, %rdi
	call	_ZN11QMetaObject10ConnectionD1Ev@PLT
	movq	_ZN10ChatWidget19onLeaveCurrentGroupEv@GOTPCREL(%rip), %rax
	movq	%rax, -528(%rbp)
	movq	$0, -520(%rbp)
	movq	_ZN7QAction9triggeredEb@GOTPCREL(%rip), %rax
	movq	%rax, -512(%rbp)
	movq	$0, -504(%rbp)
	leaq	-80(%rbp), %rdi
	movq	-360(%rbp), %rdx
	movq	-96(%rbp), %rax
	pushq	-520(%rbp)
	pushq	-528(%rbp)
	movl	$0, %r9d
	movq	%rdx, %r8
	movq	-512(%rbp), %rdx
	movq	-504(%rbp), %rcx
	movq	%rax, %rsi
	call	_ZN7QObject7connectIM7QActionFvbEM10ChatWidgetFvvEEEN11QMetaObject10ConnectionEPKN9QtPrivate15FunctionPointerIT_E6ObjectESB_PKNSA_IT0_E6ObjectESG_N2Qt14ConnectionTypeE@PLT
	addq	$16, %rsp
	leaq	-80(%rbp), %rax
	movq	%rax, %rdi
	call	_ZN11QMetaObject10ConnectionD1Ev@PLT
	movq	-128(%rbp), %rbx
	leaq	-80(%rbp), %rax
	movq	%rax, %rdi
	call	_ZN6QFlagsIN2Qt13AlignmentFlagEEC1Ev@PLT
	movl	-80(%rbp), %eax
	movq	-120(%rbp), %rsi
	movl	%eax, %ecx
	movl	$0, %edx
	movq	%rbx, %rdi
	call	_ZN10QBoxLayout9addWidgetEP7QWidgeti6QFlagsIN2Qt13AlignmentFlagEE@PLT
	movl	$48, %edi
	call	_Znwm@PLT
.LEHE217:
	movq	%rax, %r12
	movl	$1, %r13d
	leaq	-80(%rbp), %rdx
	leaq	.LC60(%rip), %rax
	movq	%rax, %rsi
	movq	%rdx, %rdi
.LEHB218:
	call	_ZN7QStringC1EPKc@PLT
.LEHE218:
	leaq	-80(%rbp), %rax
	movl	$0, %edx
	movq	%rax, %rsi
	movq	%r12, %rdi
.LEHB219:
	call	_ZN11QPushButtonC1ERK7QStringP7QWidget@PLT
.LEHE219:
	movq	-360(%rbp), %rax
	movq	%r12, 184(%rax)
	leaq	-80(%rbp), %rax
	movq	%rax, %rdi
	call	_ZN7QStringD1Ev@PLT
	movq	-360(%rbp), %rax
	movq	184(%rax), %rax
	movq	%rax, %rbx
	leaq	-80(%rbp), %rdx
	leaq	.LC61(%rip), %rax
	movq	%rax, %rsi
	movq	%rdx, %rdi
.LEHB220:
	call	_ZN7QStringC1EPKc@PLT
.LEHE220:
	leaq	-80(%rbp), %rax
	movq	%rax, %rsi
	movq	%rbx, %rdi
.LEHB221:
	call	_ZN7QWidget13setStyleSheetERK7QString@PLT
.LEHE221:
	leaq	-80(%rbp), %rax
	movq	%rax, %rdi
	call	_ZN7QStringD1Ev@PLT
	movq	-360(%rbp), %rax
	movq	184(%rax), %rax
	movq	(%rax), %rax
	addq	$104, %rax
	movq	(%rax), %rdx
	movq	-360(%rbp), %rax
	movq	184(%rax), %rax
	movl	$0, %esi
	movq	%rax, %rdi
.LEHB222:
	call	*%rdx
	movq	_ZN10ChatWidget18onLoadMoreMessagesEv@GOTPCREL(%rip), %rax
	movq	%rax, -496(%rbp)
	movq	$0, -488(%rbp)
	movq	_ZN15QAbstractButton7clickedEb@GOTPCREL(%rip), %rax
	movq	%rax, -480(%rbp)
	movq	$0, -472(%rbp)
	movq	-360(%rbp), %rax
	movq	184(%rax), %rsi
	leaq	-80(%rbp), %rdi
	movq	-360(%rbp), %rax
	pushq	-488(%rbp)
	pushq	-496(%rbp)
	movl	$0, %r9d
	movq	%rax, %r8
	movq	-480(%rbp), %rdx
	movq	-472(%rbp), %rcx
	call	_ZN7QObject7connectIM15QAbstractButtonFvbEM10ChatWidgetFvvEEEN11QMetaObject10ConnectionEPKN9QtPrivate15FunctionPointerIT_E6ObjectESB_PKNSA_IT0_E6ObjectESG_N2Qt14ConnectionTypeE@PLT
	addq	$16, %rsp
	leaq	-80(%rbp), %rax
	movq	%rax, %rdi
	call	_ZN11QMetaObject10ConnectionD1Ev@PLT
	movq	-128(%rbp), %rbx
	leaq	-80(%rbp), %rax
	movq	%rax, %rdi
	call	_ZN6QFlagsIN2Qt13AlignmentFlagEEC1Ev@PLT
	movq	-360(%rbp), %rax
	movq	184(%rax), %rsi
	movl	-80(%rbp), %eax
	movl	%eax, %ecx
	movl	$0, %edx
	movq	%rbx, %rdi
	call	_ZN10QBoxLayout9addWidgetEP7QWidgeti6QFlagsIN2Qt13AlignmentFlagEE@PLT
	movl	$48, %edi
	call	_Znwm@PLT
.LEHE222:
	movq	%rax, %r12
	movl	$1, %r13d
	movl	$0, %esi
	movq	%r12, %rdi
.LEHB223:
	call	_ZN11QListWidgetC1EP7QWidget@PLT
.LEHE223:
	movq	-360(%rbp), %rax
	movq	%r12, 136(%rax)
	movq	-360(%rbp), %rax
	movq	136(%rax), %rax
	movq	%rax, %rbx
	leaq	-80(%rbp), %rdx
	leaq	.LC62(%rip), %rax
	movq	%rax, %rsi
	movq	%rdx, %rdi
.LEHB224:
	call	_ZN7QStringC1EPKc@PLT
.LEHE224:
	leaq	-80(%rbp), %rax
	movq	%rax, %rsi
	movq	%rbx, %rdi
.LEHB225:
	call	_ZN7QWidget13setStyleSheetERK7QString@PLT
.LEHE225:
	leaq	-80(%rbp), %rax
	movq	%rax, %rdi
	call	_ZN7QStringD1Ev@PLT
	movq	-360(%rbp), %rax
	movq	136(%rax), %rax
	movl	$1, %esi
	movq	%rax, %rdi
.LEHB226:
	call	_ZN17QAbstractItemView21setVerticalScrollModeENS_10ScrollModeE@PLT
	movq	-360(%rbp), %rax
	movq	136(%rax), %rax
	movl	$1, %esi
	movq	%rax, %rdi
	call	_ZN19QAbstractScrollArea28setHorizontalScrollBarPolicyEN2Qt15ScrollBarPolicyE@PLT
	movq	-360(%rbp), %rax
	movq	136(%rax), %rax
	movl	$0, %esi
	movq	%rax, %rdi
	call	_ZN17QAbstractItemView16setSelectionModeENS_13SelectionModeE@PLT
	movq	-360(%rbp), %rax
	movq	136(%rax), %rax
	movl	$2, %esi
	movq	%rax, %rdi
	call	_ZN9QListView10setSpacingEi@PLT
	movq	-128(%rbp), %rbx
	leaq	-80(%rbp), %rax
	movq	%rax, %rdi
	call	_ZN6QFlagsIN2Qt13AlignmentFlagEEC1Ev@PLT
	movq	-360(%rbp), %rax
	movq	136(%rax), %rsi
	movl	-80(%rbp), %eax
	movl	%eax, %ecx
	movl	$0, %edx
	movq	%rbx, %rdi
	call	_ZN10QBoxLayout9addWidgetEP7QWidgeti6QFlagsIN2Qt13AlignmentFlagEE@PLT
	movl	$48, %edi
	call	_Znwm@PLT
.LEHE226:
	movq	%rax, %r12
	movl	$1, %r13d
	leaq	-80(%rbp), %rax
	movq	%rax, %rdi
	call	_ZN6QFlagsIN2Qt10WindowTypeEEC1Ev@PLT
	movl	-80(%rbp), %eax
	movl	%eax, %edx
	movl	$0, %esi
	movq	%r12, %rdi
.LEHB227:
	call	_ZN6QLabelC1EP7QWidget6QFlagsIN2Qt10WindowTypeEE@PLT
.LEHE227:
	movq	-360(%rbp), %rax
	movq	%r12, 144(%rax)
	movq	-360(%rbp), %rax
	movq	144(%rax), %rbx
	leaq	-80(%rbp), %rax
	movl	$2, %esi
	movq	%rax, %rdi
	call	_ZN6QFlagsIN2Qt13AlignmentFlagEEC1ES1_@PLT
	movl	-80(%rbp), %eax
	movl	%eax, %esi
	movq	%rbx, %rdi
.LEHB228:
	call	_ZN6QLabel12setAlignmentE6QFlagsIN2Qt13AlignmentFlagEE@PLT
	movq	-360(%rbp), %rax
	movq	144(%rax), %rax
	movq	%rax, %rbx
	leaq	-80(%rbp), %rdx
	leaq	.LC63(%rip), %rax
	movq	%rax, %rsi
	movq	%rdx, %rdi
	call	_ZN7QStringC1EPKc@PLT
.LEHE228:
	leaq	-80(%rbp), %rax
	movq	%rax, %rsi
	movq	%rbx, %rdi
.LEHB229:
	call	_ZN7QWidget13setStyleSheetERK7QString@PLT
.LEHE229:
	leaq	-80(%rbp), %rax
	movq	%rax, %rdi
	call	_ZN7QStringD1Ev@PLT
	movq	-360(%rbp), %rax
	movq	144(%rax), %rax
	movq	(%rax), %rax
	addq	$104, %rax
	movq	(%rax), %rdx
	movq	-360(%rbp), %rax
	movq	144(%rax), %rax
	movl	$0, %esi
	movq	%rax, %rdi
.LEHB230:
	call	*%rdx
	movq	-128(%rbp), %rbx
	leaq	-80(%rbp), %rax
	movq	%rax, %rdi
	call	_ZN6QFlagsIN2Qt13AlignmentFlagEEC1Ev@PLT
	movq	-360(%rbp), %rax
	movq	144(%rax), %rsi
	movl	-80(%rbp), %eax
	movl	%eax, %ecx
	movl	$0, %edx
	movq	%rbx, %rdi
	call	_ZN10QBoxLayout9addWidgetEP7QWidgeti6QFlagsIN2Qt13AlignmentFlagEE@PLT
	movl	$32, %edi
	call	_Znwm@PLT
.LEHE230:
	movq	%rax, %rbx
	movl	$1, %r13d
	movq	%rbx, %rdi
.LEHB231:
	call	_ZN11QHBoxLayoutC1Ev@PLT
.LEHE231:
	movq	%rbx, -88(%rbp)
	movq	-88(%rbp), %rax
	movl	$10, %r8d
	movl	$10, %ecx
	movl	$10, %edx
	movl	$10, %esi
	movq	%rax, %rdi
.LEHB232:
	call	_ZN7QLayout18setContentsMarginsEiiii@PLT
	movq	-88(%rbp), %rax
	movl	$8, %esi
	movq	%rax, %rdi
	call	_ZN10QBoxLayout10setSpacingEi@PLT
	movl	$48, %edi
	call	_Znwm@PLT
.LEHE232:
	movq	%rax, %r12
	movl	$1, %r13d
	movl	$0, %esi
	movq	%r12, %rdi
.LEHB233:
	call	_ZN11QToolButtonC1EP7QWidget@PLT
.LEHE233:
	movq	-360(%rbp), %rax
	movq	%r12, 168(%rax)
	movl	$128522, -340(%rbp)
	movq	-360(%rbp), %rax
	movq	168(%rax), %rax
	movq	%rax, %rbx
	leaq	-80(%rbp), %rcx
	leaq	-340(%rbp), %rax
	movl	$1, %edx
	movq	%rax, %rsi
	movq	%rcx, %rdi
.LEHB234:
	call	_ZN7QString8fromUcs4EPKji@PLT
.LEHE234:
	leaq	-80(%rbp), %rax
	movq	%rax, %rsi
	movq	%rbx, %rdi
.LEHB235:
	call	_ZN15QAbstractButton7setTextERK7QString@PLT
.LEHE235:
	leaq	-80(%rbp), %rax
	movq	%rax, %rdi
	call	_ZN7QStringD1Ev@PLT
	movq	-360(%rbp), %rax
	movq	168(%rax), %rax
	movq	%rax, %rbx
	leaq	-336(%rbp), %rdx
	leaq	.LC64(%rip), %rax
	movq	%rax, %rsi
	movq	%rdx, %rdi
.LEHB236:
	call	_ZN7QStringC1EPKc@PLT
.LEHE236:
	leaq	-336(%rbp), %rax
	leaq	-80(%rbp), %rdi
	movl	$0, %r8d
	movl	$-1, %ecx
	movl	$18, %edx
	movq	%rax, %rsi
.LEHB237:
	call	_ZN5QFontC1ERK7QStringiib@PLT
.LEHE237:
	leaq	-80(%rbp), %rax
	movq	%rax, %rsi
	movq	%rbx, %rdi
.LEHB238:
	call	_ZN7QWidget7setFontERK5QFont@PLT
.LEHE238:
	leaq	-80(%rbp), %rax
	movq	%rax, %rdi
	call	_ZN5QFontD1Ev@PLT
	leaq	-336(%rbp), %rax
	movq	%rax, %rdi
	call	_ZN7QStringD1Ev@PLT
	movq	-360(%rbp), %rax
	movq	168(%rax), %rax
	movq	%rax, %rbx
	leaq	-80(%rbp), %rdx
	leaq	.LC65(%rip), %rax
	movq	%rax, %rsi
	movq	%rdx, %rdi
.LEHB239:
	call	_ZN7QStringC1EPKc@PLT
.LEHE239:
	leaq	-80(%rbp), %rax
	movq	%rax, %rsi
	movq	%rbx, %rdi
.LEHB240:
	call	_ZN7QWidget13setStyleSheetERK7QString@PLT
.LEHE240:
	leaq	-80(%rbp), %rax
	movq	%rax, %rdi
	call	_ZN7QStringD1Ev@PLT
	movq	-360(%rbp), %rax
	movq	168(%rax), %rax
	movl	$0, %esi
	movq	%rax, %rdi
.LEHB241:
	call	_ZN7QWidget10setEnabledEb@PLT
	movq	_ZN10ChatWidget17toggleEmojiPickerEv@GOTPCREL(%rip), %rax
	movq	%rax, -464(%rbp)
	movq	$0, -456(%rbp)
	movq	_ZN15QAbstractButton7clickedEb@GOTPCREL(%rip), %rax
	movq	%rax, -448(%rbp)
	movq	$0, -440(%rbp)
	movq	-360(%rbp), %rax
	movq	168(%rax), %rsi
	leaq	-80(%rbp), %rax
	movq	-360(%rbp), %rdx
	pushq	-456(%rbp)
	pushq	-464(%rbp)
	movl	$0, %r9d
	movq	%rdx, %r8
	movq	-448(%rbp), %rdx
	movq	-440(%rbp), %rcx
	movq	%rax, %rdi
	call	_ZN7QObject7connectIM15QAbstractButtonFvbEM10ChatWidgetFvvEEEN11QMetaObject10ConnectionEPKN9QtPrivate15FunctionPointerIT_E6ObjectESB_PKNSA_IT0_E6ObjectESG_N2Qt14ConnectionTypeE@PLT
	addq	$16, %rsp
	leaq	-80(%rbp), %rax
	movq	%rax, %rdi
	call	_ZN11QMetaObject10ConnectionD1Ev@PLT
	movl	$48, %edi
	call	_Znwm@PLT
.LEHE241:
	movq	%rax, %rbx
	movl	$1, %r13d
	movl	$0, %esi
	movq	%rbx, %rdi
.LEHB242:
	call	_ZN9QLineEditC1EP7QWidget@PLT
.LEHE242:
	movq	-360(%rbp), %rax
	movq	%rbx, 152(%rax)
	movq	-360(%rbp), %rax
	movq	152(%rax), %rbx
	leaq	-80(%rbp), %rax
	leaq	.LC66(%rip), %rdx
	movq	%rdx, %rsi
	movq	%rax, %rdi
.LEHB243:
	call	_ZN7QStringC1EPKc@PLT
.LEHE243:
	leaq	-80(%rbp), %rax
	movq	%rax, %rsi
	movq	%rbx, %rdi
.LEHB244:
	call	_ZN9QLineEdit18setPlaceholderTextERK7QString@PLT
.LEHE244:
	leaq	-80(%rbp), %rax
	movq	%rax, %rdi
	call	_ZN7QStringD1Ev@PLT
	movq	-360(%rbp), %rax
	movq	152(%rax), %rax
	movq	%rax, %rbx
	leaq	-80(%rbp), %rax
	leaq	.LC67(%rip), %rdx
	movq	%rdx, %rsi
	movq	%rax, %rdi
.LEHB245:
	call	_ZN7QStringC1EPKc@PLT
.LEHE245:
	leaq	-80(%rbp), %rax
	movq	%rax, %rsi
	movq	%rbx, %rdi
.LEHB246:
	call	_ZN7QWidget13setStyleSheetERK7QString@PLT
.LEHE246:
	leaq	-80(%rbp), %rax
	movq	%rax, %rdi
	call	_ZN7QStringD1Ev@PLT
	movq	-360(%rbp), %rax
	movq	152(%rax), %rax
	movl	$0, %esi
	movq	%rax, %rdi
.LEHB247:
	call	_ZN7QWidget10setEnabledEb@PLT
	movq	-360(%rbp), %rax
	movq	152(%rax), %rax
	movl	$1, %edx
	movl	$14, %esi
	movq	%rax, %rdi
	call	_ZN7QWidget12setAttributeEN2Qt15WidgetAttributeEb@PLT
	movq	-360(%rbp), %rax
	movq	152(%rax), %rax
	movq	%rax, %rbx
	leaq	-80(%rbp), %rax
	movl	$0, %esi
	movq	%rax, %rdi
	call	_ZN6QFlagsIN2Qt15InputMethodHintEEC1ES1_@PLT
	movl	-80(%rbp), %eax
	movl	%eax, %esi
	movq	%rbx, %rdi
	call	_ZN7QWidget19setInputMethodHintsE6QFlagsIN2Qt15InputMethodHintEE@PLT
	movl	$48, %edi
	call	_Znwm@PLT
.LEHE247:
	movq	%rax, %rbx
	movl	$1, %r13d
	leaq	-80(%rbp), %rax
	leaq	.LC68(%rip), %rdx
	movq	%rdx, %rsi
	movq	%rax, %rdi
.LEHB248:
	call	_ZN7QStringC1EPKc@PLT
.LEHE248:
	leaq	-80(%rbp), %rax
	movl	$0, %edx
	movq	%rax, %rsi
	movq	%rbx, %rdi
.LEHB249:
	call	_ZN11QPushButtonC1ERK7QStringP7QWidget@PLT
.LEHE249:
	movq	-360(%rbp), %rax
	movq	%rbx, 160(%rax)
	leaq	-80(%rbp), %rax
	movq	%rax, %rdi
	call	_ZN7QStringD1Ev@PLT
	movq	-360(%rbp), %rax
	movq	160(%rax), %rax
	movq	%rax, %rbx
	leaq	-80(%rbp), %rax
	leaq	.LC69(%rip), %rdx
	movq	%rdx, %rsi
	movq	%rax, %rdi
.LEHB250:
	call	_ZN7QStringC1EPKc@PLT
.LEHE250:
	leaq	-80(%rbp), %rax
	movq	%rax, %rsi
	movq	%rbx, %rdi
.LEHB251:
	call	_ZN7QWidget13setStyleSheetERK7QString@PLT
.LEHE251:
	leaq	-80(%rbp), %rax
	movq	%rax, %rdi
	call	_ZN7QStringD1Ev@PLT
	movq	-360(%rbp), %rax
	movq	160(%rax), %rax
	movl	$0, %esi
	movq	%rax, %rdi
.LEHB252:
	call	_ZN7QWidget10setEnabledEb@PLT
	movq	-88(%rbp), %rbx
	leaq	-80(%rbp), %rax
	movq	%rax, %rdi
	call	_ZN6QFlagsIN2Qt13AlignmentFlagEEC1Ev@PLT
	movq	-360(%rbp), %rax
	movq	168(%rax), %rax
	movl	-80(%rbp), %edx
	movl	%edx, %ecx
	movl	$0, %edx
	movq	%rax, %rsi
	movq	%rbx, %rdi
	call	_ZN10QBoxLayout9addWidgetEP7QWidgeti6QFlagsIN2Qt13AlignmentFlagEE@PLT
	movq	-88(%rbp), %rbx
	leaq	-80(%rbp), %rax
	movq	%rax, %rdi
	call	_ZN6QFlagsIN2Qt13AlignmentFlagEEC1Ev@PLT
	movq	-360(%rbp), %rax
	movq	152(%rax), %rax
	movl	-80(%rbp), %edx
	movl	%edx, %ecx
	movl	$0, %edx
	movq	%rax, %rsi
	movq	%rbx, %rdi
	call	_ZN10QBoxLayout9addWidgetEP7QWidgeti6QFlagsIN2Qt13AlignmentFlagEE@PLT
	movq	-88(%rbp), %rbx
	leaq	-80(%rbp), %rax
	movq	%rax, %rdi
	call	_ZN6QFlagsIN2Qt13AlignmentFlagEEC1Ev@PLT
	movq	-360(%rbp), %rax
	movq	160(%rax), %rax
	movl	-80(%rbp), %edx
	movl	%edx, %ecx
	movl	$0, %edx
	movq	%rax, %rsi
	movq	%rbx, %rdi
	call	_ZN10QBoxLayout9addWidgetEP7QWidgeti6QFlagsIN2Qt13AlignmentFlagEE@PLT
	movq	-128(%rbp), %rax
	movq	-88(%rbp), %rcx
	movl	$0, %edx
	movq	%rcx, %rsi
	movq	%rax, %rdi
	call	_ZN10QBoxLayout9addLayoutEP7QLayouti@PLT
	movq	-360(%rbp), %rax
	movq	%rax, %rdi
	call	_ZN10ChatWidget16setupEmojiPickerEv@PLT
	movq	_ZN10ChatWidget13onSendClickedEv@GOTPCREL(%rip), %rax
	movq	%rax, -432(%rbp)
	movq	$0, -424(%rbp)
	movq	_ZN15QAbstractButton7clickedEb@GOTPCREL(%rip), %rax
	movq	%rax, -416(%rbp)
	movq	$0, -408(%rbp)
	movq	-360(%rbp), %rax
	movq	160(%rax), %rsi
	leaq	-80(%rbp), %rax
	movq	-360(%rbp), %rdx
	pushq	-424(%rbp)
	pushq	-432(%rbp)
	movl	$0, %r9d
	movq	%rdx, %r8
	movq	-416(%rbp), %rdx
	movq	-408(%rbp), %rcx
	movq	%rax, %rdi
	call	_ZN7QObject7connectIM15QAbstractButtonFvbEM10ChatWidgetFvvEEEN11QMetaObject10ConnectionEPKN9QtPrivate15FunctionPointerIT_E6ObjectESB_PKNSA_IT0_E6ObjectESG_N2Qt14ConnectionTypeE@PLT
	addq	$16, %rsp
	leaq	-80(%rbp), %rax
	movq	%rax, %rdi
	call	_ZN11QMetaObject10ConnectionD1Ev@PLT
	movq	_ZN10ChatWidget13onSendClickedEv@GOTPCREL(%rip), %rax
	movq	%rax, -400(%rbp)
	movq	$0, -392(%rbp)
	movq	_ZN9QLineEdit13returnPressedEv@GOTPCREL(%rip), %rax
	movq	%rax, -384(%rbp)
	movq	$0, -376(%rbp)
	movq	-360(%rbp), %rax
	movq	152(%rax), %rsi
	leaq	-80(%rbp), %rax
	movq	-360(%rbp), %rdx
	pushq	-392(%rbp)
	pushq	-400(%rbp)
	movl	$0, %r9d
	movq	%rdx, %r8
	movq	-384(%rbp), %rdx
	movq	-376(%rbp), %rcx
	movq	%rax, %rdi
	call	_ZN7QObject7connectIM9QLineEditFvvEM10ChatWidgetFvvEEEN11QMetaObject10ConnectionEPKN9QtPrivate15FunctionPointerIT_E6ObjectESB_PKNSA_IT0_E6ObjectESG_N2Qt14ConnectionTypeE@PLT
	addq	$16, %rsp
	leaq	-80(%rbp), %rax
	movq	%rax, %rdi
	call	_ZN11QMetaObject10ConnectionD1Ev@PLT
	movq	-328(%rbp), %rbx
	leaq	-80(%rbp), %rax
	movq	%rax, %rdi
	call	_ZN6QFlagsIN2Qt13AlignmentFlagEEC1Ev@PLT
	movl	-80(%rbp), %edx
	movq	-320(%rbp), %rax
	movl	%edx, %ecx
	movl	$0, %edx
	movq	%rax, %rsi
	movq	%rbx, %rdi
	call	_ZN10QBoxLayout9addWidgetEP7QWidgeti6QFlagsIN2Qt13AlignmentFlagEE@PLT
	movq	-328(%rbp), %rbx
	leaq	-80(%rbp), %rax
	movq	%rax, %rdi
	call	_ZN6QFlagsIN2Qt13AlignmentFlagEEC1Ev@PLT
	movl	-80(%rbp), %edx
	movq	-136(%rbp), %rax
	movl	%edx, %ecx
	movl	$1, %edx
	movq	%rax, %rsi
	movq	%rbx, %rdi
	call	_ZN10QBoxLayout9addWidgetEP7QWidgeti6QFlagsIN2Qt13AlignmentFlagEE@PLT
	nop
	movq	-56(%rbp), %rax
	subq	%fs:40, %rax
	je	.L574
	jmp	.L675
.L575:
	endbr64
	movq	%rax, %rbx
	testb	%r13b, %r13b
	je	.L349
	movl	$32, %esi
	movq	%r12, %rdi
	call	_ZdlPvm@PLT
.L349:
	movq	%rbx, %rax
	movq	-56(%rbp), %rdx
	subq	%fs:40, %rdx
	je	.L350
	call	__stack_chk_fail@PLT
.L350:
	movq	%rax, %rdi
	call	_Unwind_Resume@PLT
.L576:
	endbr64
	movq	%rax, %rbx
	testb	%r13b, %r13b
	je	.L352
	movl	$48, %esi
	movq	%r12, %rdi
	call	_ZdlPvm@PLT
.L352:
	movq	%rbx, %rax
	movq	-56(%rbp), %rdx
	subq	%fs:40, %rdx
	je	.L353
	call	__stack_chk_fail@PLT
.L353:
	movq	%rax, %rdi
	call	_Unwind_Resume@PLT
.L577:
	endbr64
	movq	%rax, %rbx
	leaq	-80(%rbp), %rax
	movq	%rax, %rdi
	call	_ZN7QStringD1Ev@PLT
	movq	%rbx, %rax
	movq	-56(%rbp), %rdx
	subq	%fs:40, %rdx
	je	.L355
	call	__stack_chk_fail@PLT
.L355:
	movq	%rax, %rdi
	call	_Unwind_Resume@PLT
.L578:
	endbr64
	movq	%rax, %rbx
	testb	%r13b, %r13b
	je	.L357
	movl	$32, %esi
	movq	%r12, %rdi
	call	_ZdlPvm@PLT
.L357:
	movq	%rbx, %rax
	movq	-56(%rbp), %rdx
	subq	%fs:40, %rdx
	je	.L358
	call	__stack_chk_fail@PLT
.L358:
	movq	%rax, %rdi
	call	_Unwind_Resume@PLT
.L580:
	endbr64
	movq	%rax, %rbx
	leaq	-80(%rbp), %rax
	movq	%rax, %rdi
	call	_ZN7QStringD1Ev@PLT
	jmp	.L360
.L579:
	endbr64
	movq	%rax, %rbx
.L360:
	testb	%r13b, %r13b
	je	.L361
	movl	$48, %esi
	movq	%r12, %rdi
	call	_ZdlPvm@PLT
.L361:
	movq	%rbx, %rax
	movq	-56(%rbp), %rdx
	subq	%fs:40, %rdx
	je	.L362
	call	__stack_chk_fail@PLT
.L362:
	movq	%rax, %rdi
	call	_Unwind_Resume@PLT
.L581:
	endbr64
	movq	%rax, %rbx
	leaq	-80(%rbp), %rax
	movq	%rax, %rdi
	call	_ZN7QStringD1Ev@PLT
	movq	%rbx, %rax
	movq	-56(%rbp), %rdx
	subq	%fs:40, %rdx
	je	.L364
	call	__stack_chk_fail@PLT
.L364:
	movq	%rax, %rdi
	call	_Unwind_Resume@PLT
.L582:
	endbr64
	movq	%rax, %rbx
	testb	%r13b, %r13b
	je	.L366
	movl	$48, %esi
	movq	%r12, %rdi
	call	_ZdlPvm@PLT
.L366:
	movq	%rbx, %rax
	movq	-56(%rbp), %rdx
	subq	%fs:40, %rdx
	je	.L367
	call	__stack_chk_fail@PLT
.L367:
	movq	%rax, %rdi
	call	_Unwind_Resume@PLT
.L583:
	endbr64
	movq	%rax, %rbx
	testb	%r13b, %r13b
	je	.L369
	movl	$48, %esi
	movq	%r12, %rdi
	call	_ZdlPvm@PLT
.L369:
	movq	%rbx, %rax
	movq	-56(%rbp), %rdx
	subq	%fs:40, %rdx
	je	.L370
	call	__stack_chk_fail@PLT
.L370:
	movq	%rax, %rdi
	call	_Unwind_Resume@PLT
.L584:
	endbr64
	movq	%rax, %rbx
	testb	%r13b, %r13b
	je	.L372
	movl	$32, %esi
	movq	%r12, %rdi
	call	_ZdlPvm@PLT
.L372:
	movq	%rbx, %rax
	movq	-56(%rbp), %rdx
	subq	%fs:40, %rdx
	je	.L373
	call	__stack_chk_fail@PLT
.L373:
	movq	%rax, %rdi
	call	_Unwind_Resume@PLT
.L585:
	endbr64
	movq	%rax, %rbx
	testb	%r13b, %r13b
	je	.L375
	movl	$32, %esi
	movq	%r12, %rdi
	call	_ZdlPvm@PLT
.L375:
	movq	%rbx, %rax
	movq	-56(%rbp), %rdx
	subq	%fs:40, %rdx
	je	.L376
	call	__stack_chk_fail@PLT
.L376:
	movq	%rax, %rdi
	call	_Unwind_Resume@PLT
.L587:
	endbr64
	movq	%rax, %rbx
	leaq	-80(%rbp), %rax
	movq	%rax, %rdi
	call	_ZN7QStringD1Ev@PLT
	jmp	.L378
.L586:
	endbr64
	movq	%rax, %rbx
.L378:
	testb	%r13b, %r13b
	je	.L379
	movl	$48, %esi
	movq	%r12, %rdi
	call	_ZdlPvm@PLT
.L379:
	movq	%rbx, %rax
	movq	-56(%rbp), %rdx
	subq	%fs:40, %rdx
	je	.L380
	call	__stack_chk_fail@PLT
.L380:
	movq	%rax, %rdi
	call	_Unwind_Resume@PLT
.L588:
	endbr64
	movq	%rax, %rbx
	leaq	-80(%rbp), %rax
	movq	%rax, %rdi
	call	_ZN7QStringD1Ev@PLT
	movq	%rbx, %rax
	movq	-56(%rbp), %rdx
	subq	%fs:40, %rdx
	je	.L382
	call	__stack_chk_fail@PLT
.L382:
	movq	%rax, %rdi
	call	_Unwind_Resume@PLT
.L589:
	endbr64
	movq	%rax, %rbx
	leaq	-80(%rbp), %rax
	movq	%rax, %rdi
	call	_ZN7QStringD1Ev@PLT
	movq	%rbx, %rax
	movq	-56(%rbp), %rdx
	subq	%fs:40, %rdx
	je	.L384
	call	__stack_chk_fail@PLT
.L384:
	movq	%rax, %rdi
	call	_Unwind_Resume@PLT
.L591:
	endbr64
	movq	%rax, %rbx
	leaq	-80(%rbp), %rax
	movq	%rax, %rdi
	call	_ZN7QStringD1Ev@PLT
	jmp	.L386
.L590:
	endbr64
	movq	%rax, %rbx
.L386:
	testb	%r13b, %r13b
	je	.L387
	movl	$48, %esi
	movq	%r12, %rdi
	call	_ZdlPvm@PLT
.L387:
	movq	%rbx, %rax
	movq	-56(%rbp), %rdx
	subq	%fs:40, %rdx
	je	.L388
	call	__stack_chk_fail@PLT
.L388:
	movq	%rax, %rdi
	call	_Unwind_Resume@PLT
.L592:
	endbr64
	movq	%rax, %rbx
	leaq	-80(%rbp), %rax
	movq	%rax, %rdi
	call	_ZN7QStringD1Ev@PLT
	movq	%rbx, %rax
	movq	-56(%rbp), %rdx
	subq	%fs:40, %rdx
	je	.L390
	call	__stack_chk_fail@PLT
.L390:
	movq	%rax, %rdi
	call	_Unwind_Resume@PLT
.L593:
	endbr64
	movq	%rax, %rbx
	leaq	-80(%rbp), %rax
	movq	%rax, %rdi
	call	_ZN7QStringD1Ev@PLT
	movq	%rbx, %rax
	movq	-56(%rbp), %rdx
	subq	%fs:40, %rdx
	je	.L392
	call	__stack_chk_fail@PLT
.L392:
	movq	%rax, %rdi
	call	_Unwind_Resume@PLT
.L595:
	endbr64
	movq	%rax, %rbx
	leaq	-80(%rbp), %rax
	movq	%rax, %rdi
	call	_ZN7QStringD1Ev@PLT
	jmp	.L394
.L594:
	endbr64
	movq	%rax, %rbx
.L394:
	testb	%r13b, %r13b
	je	.L395
	movl	$48, %esi
	movq	%r12, %rdi
	call	_ZdlPvm@PLT
.L395:
	movq	%rbx, %rax
	movq	-56(%rbp), %rdx
	subq	%fs:40, %rdx
	je	.L396
	call	__stack_chk_fail@PLT
.L396:
	movq	%rax, %rdi
	call	_Unwind_Resume@PLT
.L596:
	endbr64
	movq	%rax, %rbx
	leaq	-80(%rbp), %rax
	movq	%rax, %rdi
	call	_ZN7QStringD1Ev@PLT
	movq	%rbx, %rax
	movq	-56(%rbp), %rdx
	subq	%fs:40, %rdx
	je	.L398
	call	__stack_chk_fail@PLT
.L398:
	movq	%rax, %rdi
	call	_Unwind_Resume@PLT
.L597:
	endbr64
	movq	%rax, %rbx
	leaq	-80(%rbp), %rax
	movq	%rax, %rdi
	call	_ZN7QStringD1Ev@PLT
	movq	%rbx, %rax
	movq	-56(%rbp), %rdx
	subq	%fs:40, %rdx
	je	.L400
	call	__stack_chk_fail@PLT
.L400:
	movq	%rax, %rdi
	call	_Unwind_Resume@PLT
.L598:
	endbr64
	movq	%rax, %rbx
	testb	%r13b, %r13b
	je	.L402
	movl	$48, %esi
	movq	%r12, %rdi
	call	_ZdlPvm@PLT
.L402:
	movq	%rbx, %rax
	movq	-56(%rbp), %rdx
	subq	%fs:40, %rdx
	je	.L403
	call	__stack_chk_fail@PLT
.L403:
	movq	%rax, %rdi
	call	_Unwind_Resume@PLT
.L599:
	endbr64
	movq	%rax, %rbx
	leaq	-80(%rbp), %rax
	movq	%rax, %rdi
	call	_ZN7QStringD1Ev@PLT
	movq	%rbx, %rax
	movq	-56(%rbp), %rdx
	subq	%fs:40, %rdx
	je	.L405
	call	__stack_chk_fail@PLT
.L405:
	movq	%rax, %rdi
	call	_Unwind_Resume@PLT
.L600:
	endbr64
	movq	%rax, %rbx
	leaq	-80(%rbp), %rax
	movq	%rax, %rdi
	call	_ZN7QStringD1Ev@PLT
	movq	%rbx, %rax
	movq	-56(%rbp), %rdx
	subq	%fs:40, %rdx
	je	.L407
	call	__stack_chk_fail@PLT
.L407:
	movq	%rax, %rdi
	call	_Unwind_Resume@PLT
.L601:
	endbr64
	movq	%rax, %rbx
	testb	%r13b, %r13b
	je	.L409
	movl	$48, %esi
	movq	%r12, %rdi
	call	_ZdlPvm@PLT
.L409:
	movq	%rbx, %rax
	movq	-56(%rbp), %rdx
	subq	%fs:40, %rdx
	je	.L410
	call	__stack_chk_fail@PLT
.L410:
	movq	%rax, %rdi
	call	_Unwind_Resume@PLT
.L602:
	endbr64
	movq	%rax, %rbx
	testb	%r13b, %r13b
	je	.L412
	movl	$32, %esi
	movq	%r12, %rdi
	call	_ZdlPvm@PLT
.L412:
	movq	%rbx, %rax
	movq	-56(%rbp), %rdx
	subq	%fs:40, %rdx
	je	.L413
	call	__stack_chk_fail@PLT
.L413:
	movq	%rax, %rdi
	call	_Unwind_Resume@PLT
.L603:
	endbr64
	movq	%rax, %rbx
	testb	%r13b, %r13b
	je	.L415
	movl	$32, %esi
	movq	%r12, %rdi
	call	_ZdlPvm@PLT
.L415:
	movq	%rbx, %rax
	movq	-56(%rbp), %rdx
	subq	%fs:40, %rdx
	je	.L416
	call	__stack_chk_fail@PLT
.L416:
	movq	%rax, %rdi
	call	_Unwind_Resume@PLT
.L605:
	endbr64
	movq	%rax, %rbx
	leaq	-80(%rbp), %rax
	movq	%rax, %rdi
	call	_ZN7QStringD1Ev@PLT
	jmp	.L418
.L604:
	endbr64
	movq	%rax, %rbx
.L418:
	testb	%r13b, %r13b
	je	.L419
	movl	$48, %esi
	movq	%r12, %rdi
	call	_ZdlPvm@PLT
.L419:
	movq	%rbx, %rax
	movq	-56(%rbp), %rdx
	subq	%fs:40, %rdx
	je	.L420
	call	__stack_chk_fail@PLT
.L420:
	movq	%rax, %rdi
	call	_Unwind_Resume@PLT
.L606:
	endbr64
	movq	%rax, %rbx
	leaq	-80(%rbp), %rax
	movq	%rax, %rdi
	call	_ZN7QStringD1Ev@PLT
	movq	%rbx, %rax
	movq	-56(%rbp), %rdx
	subq	%fs:40, %rdx
	je	.L422
	call	__stack_chk_fail@PLT
.L422:
	movq	%rax, %rdi
	call	_Unwind_Resume@PLT
.L607:
	endbr64
	movq	%rax, %rbx
	leaq	-80(%rbp), %rax
	movq	%rax, %rdi
	call	_ZN7QStringD1Ev@PLT
	movq	%rbx, %rax
	movq	-56(%rbp), %rdx
	subq	%fs:40, %rdx
	je	.L424
	call	__stack_chk_fail@PLT
.L424:
	movq	%rax, %rdi
	call	_Unwind_Resume@PLT
.L609:
	endbr64
	movq	%rax, %rbx
	leaq	-80(%rbp), %rax
	movq	%rax, %rdi
	call	_ZN7QStringD1Ev@PLT
	jmp	.L426
.L608:
	endbr64
	movq	%rax, %rbx
.L426:
	testb	%r13b, %r13b
	je	.L427
	movl	$48, %esi
	movq	%r12, %rdi
	call	_ZdlPvm@PLT
.L427:
	movq	%rbx, %rax
	movq	-56(%rbp), %rdx
	subq	%fs:40, %rdx
	je	.L428
	call	__stack_chk_fail@PLT
.L428:
	movq	%rax, %rdi
	call	_Unwind_Resume@PLT
.L610:
	endbr64
	movq	%rax, %rbx
	leaq	-80(%rbp), %rax
	movq	%rax, %rdi
	call	_ZN7QStringD1Ev@PLT
	movq	%rbx, %rax
	movq	-56(%rbp), %rdx
	subq	%fs:40, %rdx
	je	.L430
	call	__stack_chk_fail@PLT
.L430:
	movq	%rax, %rdi
	call	_Unwind_Resume@PLT
.L611:
	endbr64
	movq	%rax, %rbx
	leaq	-80(%rbp), %rax
	movq	%rax, %rdi
	call	_ZN7QStringD1Ev@PLT
	movq	%rbx, %rax
	movq	-56(%rbp), %rdx
	subq	%fs:40, %rdx
	je	.L432
	call	__stack_chk_fail@PLT
.L432:
	movq	%rax, %rdi
	call	_Unwind_Resume@PLT
.L613:
	endbr64
	movq	%rax, %rbx
	leaq	-80(%rbp), %rax
	movq	%rax, %rdi
	call	_ZN7QStringD1Ev@PLT
	jmp	.L434
.L612:
	endbr64
	movq	%rax, %rbx
.L434:
	testb	%r13b, %r13b
	je	.L435
	movl	$48, %esi
	movq	%r12, %rdi
	call	_ZdlPvm@PLT
.L435:
	movq	%rbx, %rax
	movq	-56(%rbp), %rdx
	subq	%fs:40, %rdx
	je	.L436
	call	__stack_chk_fail@PLT
.L436:
	movq	%rax, %rdi
	call	_Unwind_Resume@PLT
.L614:
	endbr64
	movq	%rax, %rbx
	leaq	-80(%rbp), %rax
	movq	%rax, %rdi
	call	_ZN7QStringD1Ev@PLT
	movq	%rbx, %rax
	movq	-56(%rbp), %rdx
	subq	%fs:40, %rdx
	je	.L438
	call	__stack_chk_fail@PLT
.L438:
	movq	%rax, %rdi
	call	_Unwind_Resume@PLT
.L615:
	endbr64
	movq	%rax, %rbx
	leaq	-80(%rbp), %rax
	movq	%rax, %rdi
	call	_ZN7QStringD1Ev@PLT
	movq	%rbx, %rax
	movq	-56(%rbp), %rdx
	subq	%fs:40, %rdx
	je	.L440
	call	__stack_chk_fail@PLT
.L440:
	movq	%rax, %rdi
	call	_Unwind_Resume@PLT
.L617:
	endbr64
	movq	%rax, %rbx
	leaq	-80(%rbp), %rax
	movq	%rax, %rdi
	call	_ZN7QStringD1Ev@PLT
	jmp	.L442
.L616:
	endbr64
	movq	%rax, %rbx
.L442:
	testb	%r13b, %r13b
	je	.L443
	movl	$48, %esi
	movq	%r12, %rdi
	call	_ZdlPvm@PLT
.L443:
	movq	%rbx, %rax
	movq	-56(%rbp), %rdx
	subq	%fs:40, %rdx
	je	.L444
	call	__stack_chk_fail@PLT
.L444:
	movq	%rax, %rdi
	call	_Unwind_Resume@PLT
.L618:
	endbr64
	movq	%rax, %rbx
	leaq	-80(%rbp), %rax
	movq	%rax, %rdi
	call	_ZN7QStringD1Ev@PLT
	movq	%rbx, %rax
	movq	-56(%rbp), %rdx
	subq	%fs:40, %rdx
	je	.L446
	call	__stack_chk_fail@PLT
.L446:
	movq	%rax, %rdi
	call	_Unwind_Resume@PLT
.L619:
	endbr64
	movq	%rax, %rbx
	leaq	-80(%rbp), %rax
	movq	%rax, %rdi
	call	_ZN7QStringD1Ev@PLT
	movq	%rbx, %rax
	movq	-56(%rbp), %rdx
	subq	%fs:40, %rdx
	je	.L448
	call	__stack_chk_fail@PLT
.L448:
	movq	%rax, %rdi
	call	_Unwind_Resume@PLT
.L620:
	endbr64
	movq	%rax, %rbx
	testb	%r13b, %r13b
	je	.L450
	movl	$48, %esi
	movq	%r12, %rdi
	call	_ZdlPvm@PLT
.L450:
	movq	%rbx, %rax
	movq	-56(%rbp), %rdx
	subq	%fs:40, %rdx
	je	.L451
	call	__stack_chk_fail@PLT
.L451:
	movq	%rax, %rdi
	call	_Unwind_Resume@PLT
.L621:
	endbr64
	movq	%rax, %rbx
	leaq	-80(%rbp), %rax
	movq	%rax, %rdi
	call	_ZN7QStringD1Ev@PLT
	movq	%rbx, %rax
	movq	-56(%rbp), %rdx
	subq	%fs:40, %rdx
	je	.L453
	call	__stack_chk_fail@PLT
.L453:
	movq	%rax, %rdi
	call	_Unwind_Resume@PLT
.L622:
	endbr64
	movq	%rax, %rbx
	leaq	-80(%rbp), %rax
	movq	%rax, %rdi
	call	_ZN7QStringD1Ev@PLT
	movq	%rbx, %rax
	movq	-56(%rbp), %rdx
	subq	%fs:40, %rdx
	je	.L455
	call	__stack_chk_fail@PLT
.L455:
	movq	%rax, %rdi
	call	_Unwind_Resume@PLT
.L623:
	endbr64
	movq	%rax, %rbx
	testb	%r13b, %r13b
	je	.L457
	movl	$48, %esi
	movq	%r12, %rdi
	call	_ZdlPvm@PLT
.L457:
	movq	%rbx, %rax
	movq	-56(%rbp), %rdx
	subq	%fs:40, %rdx
	je	.L458
	call	__stack_chk_fail@PLT
.L458:
	movq	%rax, %rdi
	call	_Unwind_Resume@PLT
.L624:
	endbr64
	movq	%rax, %rbx
	testb	%r13b, %r13b
	je	.L460
	movl	$32, %esi
	movq	%r12, %rdi
	call	_ZdlPvm@PLT
.L460:
	movq	%rbx, %rax
	movq	-56(%rbp), %rdx
	subq	%fs:40, %rdx
	je	.L461
	call	__stack_chk_fail@PLT
.L461:
	movq	%rax, %rdi
	call	_Unwind_Resume@PLT
.L625:
	endbr64
	movq	%rax, %rbx
	testb	%r13b, %r13b
	je	.L463
	movl	$48, %esi
	movq	%r12, %rdi
	call	_ZdlPvm@PLT
.L463:
	movq	%rbx, %rax
	movq	-56(%rbp), %rdx
	subq	%fs:40, %rdx
	je	.L464
	call	__stack_chk_fail@PLT
.L464:
	movq	%rax, %rdi
	call	_Unwind_Resume@PLT
.L626:
	endbr64
	movq	%rax, %rbx
	leaq	-80(%rbp), %rax
	movq	%rax, %rdi
	call	_ZN7QStringD1Ev@PLT
	movq	%rbx, %rax
	movq	-56(%rbp), %rdx
	subq	%fs:40, %rdx
	je	.L466
	call	__stack_chk_fail@PLT
.L466:
	movq	%rax, %rdi
	call	_Unwind_Resume@PLT
.L627:
	endbr64
	movq	%rax, %rbx
	leaq	-80(%rbp), %rax
	movq	%rax, %rdi
	call	_ZN7QStringD1Ev@PLT
	movq	%rbx, %rax
	movq	-56(%rbp), %rdx
	subq	%fs:40, %rdx
	je	.L468
	call	__stack_chk_fail@PLT
.L468:
	movq	%rax, %rdi
	call	_Unwind_Resume@PLT
.L628:
	endbr64
	movq	%rax, %rbx
	testb	%r13b, %r13b
	je	.L470
	movl	$48, %esi
	movq	%r12, %rdi
	call	_ZdlPvm@PLT
.L470:
	movq	%rbx, %rax
	movq	-56(%rbp), %rdx
	subq	%fs:40, %rdx
	je	.L471
	call	__stack_chk_fail@PLT
.L471:
	movq	%rax, %rdi
	call	_Unwind_Resume@PLT
.L629:
	endbr64
	movq	%rax, %rbx
	leaq	-80(%rbp), %rax
	movq	%rax, %rdi
	call	_ZN7QStringD1Ev@PLT
	movq	%rbx, %rax
	movq	-56(%rbp), %rdx
	subq	%fs:40, %rdx
	je	.L473
	call	__stack_chk_fail@PLT
.L473:
	movq	%rax, %rdi
	call	_Unwind_Resume@PLT
.L631:
	endbr64
	movq	%rax, %rbx
	leaq	-80(%rbp), %rax
	movq	%rax, %rdi
	call	_ZN7QStringD1Ev@PLT
	jmp	.L475
.L630:
	endbr64
	movq	%rax, %rbx
.L475:
	testb	%r13b, %r13b
	je	.L476
	movl	$48, %esi
	movq	%r12, %rdi
	call	_ZdlPvm@PLT
.L476:
	movq	%rbx, %rax
	movq	-56(%rbp), %rdx
	subq	%fs:40, %rdx
	je	.L477
	call	__stack_chk_fail@PLT
.L477:
	movq	%rax, %rdi
	call	_Unwind_Resume@PLT
.L632:
	endbr64
	movq	%rax, %rbx
	leaq	-80(%rbp), %rax
	movq	%rax, %rdi
	call	_ZN7QStringD1Ev@PLT
	movq	%rbx, %rax
	movq	-56(%rbp), %rdx
	subq	%fs:40, %rdx
	je	.L479
	call	__stack_chk_fail@PLT
.L479:
	movq	%rax, %rdi
	call	_Unwind_Resume@PLT
.L634:
	endbr64
	movq	%rax, %rbx
	leaq	-80(%rbp), %rax
	movq	%rax, %rdi
	call	_ZN7QStringD1Ev@PLT
	jmp	.L481
.L633:
	endbr64
	movq	%rax, %rbx
.L481:
	testb	%r13b, %r13b
	je	.L482
	movl	$48, %esi
	movq	%r12, %rdi
	call	_ZdlPvm@PLT
.L482:
	movq	%rbx, %rax
	movq	-56(%rbp), %rdx
	subq	%fs:40, %rdx
	je	.L483
	call	__stack_chk_fail@PLT
.L483:
	movq	%rax, %rdi
	call	_Unwind_Resume@PLT
.L635:
	endbr64
	movq	%rax, %rbx
	leaq	-80(%rbp), %rax
	movq	%rax, %rdi
	call	_ZN7QStringD1Ev@PLT
	movq	%rbx, %rax
	movq	-56(%rbp), %rdx
	subq	%fs:40, %rdx
	je	.L485
	call	__stack_chk_fail@PLT
.L485:
	movq	%rax, %rdi
	call	_Unwind_Resume@PLT
.L637:
	endbr64
	movq	%rax, %rbx
	leaq	-80(%rbp), %rax
	movq	%rax, %rdi
	call	_ZN7QStringD1Ev@PLT
	jmp	.L487
.L636:
	endbr64
	movq	%rax, %rbx
.L487:
	testb	%r13b, %r13b
	je	.L488
	movl	$48, %esi
	movq	%r12, %rdi
	call	_ZdlPvm@PLT
.L488:
	movq	%rbx, %rax
	movq	-56(%rbp), %rdx
	subq	%fs:40, %rdx
	je	.L489
	call	__stack_chk_fail@PLT
.L489:
	movq	%rax, %rdi
	call	_Unwind_Resume@PLT
.L638:
	endbr64
	movq	%rax, %rbx
	leaq	-80(%rbp), %rax
	movq	%rax, %rdi
	call	_ZN7QStringD1Ev@PLT
	movq	%rbx, %rax
	movq	-56(%rbp), %rdx
	subq	%fs:40, %rdx
	je	.L491
	call	__stack_chk_fail@PLT
.L491:
	movq	%rax, %rdi
	call	_Unwind_Resume@PLT
.L639:
	endbr64
	movq	%rax, %rbx
	leaq	-80(%rbp), %rax
	movq	%rax, %rdi
	call	_ZN7QStringD1Ev@PLT
	movq	%rbx, %rax
	movq	-56(%rbp), %rdx
	subq	%fs:40, %rdx
	je	.L493
	call	__stack_chk_fail@PLT
.L493:
	movq	%rax, %rdi
	call	_Unwind_Resume@PLT
.L640:
	endbr64
	movq	%rax, %rbx
	testb	%r13b, %r13b
	je	.L495
	movl	$48, %esi
	movq	%r12, %rdi
	call	_ZdlPvm@PLT
.L495:
	movq	%rbx, %rax
